Microchip Technology Inc, v1.32 (B)

Tool Name:
  c:\program files (x86)\microchip\xc16\v1.32\bin\bin\..\bin/elf-ld.exe

Command:
  -p24FJ128GA310 \
  -o \
  dist/default/production/cs66b-redo.production.elf \
  -Lc:/program files (x86)/microchip/xc16/v1.32/bin/bin/.. \
  -Lc:/program files (x86)/microchip/xc16/v1.32/bin/bin/../../lib \
  -Lc:/program files (x86)/microchip/xc16/v1.32/bin/bin/../../support/PIC24E/gld \
  -Lc:/program files (x86)/microchip/xc16/v1.32/bin/bin/../../support/PIC24F/gld \
  -Lc:/program files (x86)/microchip/xc16/v1.32/bin/bin/../../support/PIC24H/gld \
  -Lc:/program files (x86)/microchip/xc16/v1.32/bin/bin/../../support/dsPIC30F/gld \
  -Lc:/program files (x86)/microchip/xc16/v1.32/bin/bin/../../support/dsPIC33E/gld \
  -Lc:/program files (x86)/microchip/xc16/v1.32/bin/bin/../../support/dsPIC33F/gld \
  build/default/production/mcc_generated_files/rtcc.o \
  build/default/production/mcc_generated_files/pin_manager.o \
  build/default/production/mcc_generated_files/interrupt_manager.o \
  build/default/production/mcc_generated_files/mcc.o \
  build/default/production/mcc_generated_files/tmr2.o \
  build/default/production/mcc_generated_files/tmr1.o \
  build/default/production/mcc_generated_files/traps.o \
  build/default/production/mcc_generated_files/uart2.o \
  build/default/production/mcc_generated_files/uart1.o \
  build/default/production/mcc_generated_files/adc1.o \
  build/default/production/src/api/ui.o \
  build/default/production/src/api/key_menu.o \
  build/default/production/src/api/sysdata.o \
  build/default/production/src/api/modbus.o \
  build/default/production/src/api/gps.o \
  build/default/production/src/api/nbiot.o \
  build/default/production/src/app/main.o \
  build/default/production/src/app/event.o \
  build/default/production/src/app/sample.o \
  build/default/production/src/depend/crc16.o \
  build/default/production/src/depend/m_string.o \
  build/default/production/src/driver/lcd.o \
  build/default/production/src/driver/gpio.o \
  build/default/production/src/driver/ads1148.o \
  build/default/production/src/driver/ads1148_hal.o \
  build/default/production/src/driver/ex_eeprom.o \
  build/default/production/src/driver/i2c.o \
  build/default/production/src/driver/key.o \
  build/default/production/src/driver/ad421.o \
  build/default/production/src/global/globle.o \
  build/default/production/src/soc/delay.o \
  build/default/production/src/soc/ticker.o \
  build/default/production/src/soc/flash.o \
  build/default/production/src/soc/m_asm.o \
  build/default/production/src/api/at-cmd.o \
  --local-stack \
  --defsym=__MPLAB_BUILD=1 \
  -Tp24FJ128GA310.gld.00 \
  --stack=16 \
  --check-sections \
  --data-init \
  --pack-data \
  --handles \
  --isr \
  --no-gc-sections \
  --fill-upper=0 \
  --stackguard=16 \
  --no-force-link \
  --smart-io \
  -Map=dist/default/production/cs66b-redo.production.map \
  --report-mem \
  --memorysummary \
  dist/default/production/memoryfile.xml \
  -start-group \
  --library=lega-pic30-elf \
  --library=m-elf \
  --library=lega-c-elf \
  -end-group \


Optional library libpPIC24Fxxx.a not found
Archive member included because of file (symbol)

c:/program files (x86)/microchip/xc16/v1.32/bin/bin/../../lib\liblega-pic30-elf.a(crt0_extended24.o)
                              (__resetPRI)
c:/program files (x86)/microchip/xc16/v1.32/bin/bin/../../lib\liblega-pic30-elf.a(data_init_24.o)
                              c:/program files (x86)/microchip/xc16/v1.32/bin/bin/../../lib\liblega-pic30-elf.a(crt0_extended24.o) (__data_init_da)
c:/program files (x86)/microchip/xc16/v1.32/bin/bin/../../lib\liblega-pic30-elf.a(crt_start_mode_normalda.Leo)
                              (__crt_start_mode_normal)
c:/program files (x86)/microchip/xc16/v1.32/bin/bin/../../lib\libm-elf.a(addsf3.daeo)
                              build/default/production/src/api/sysdata.o (___subsf3)
c:/program files (x86)/microchip/xc16/v1.32/bin/bin/../../lib\libm-elf.a(divsf3.daeo)
                              build/default/production/src/api/sysdata.o (___divsf3)
c:/program files (x86)/microchip/xc16/v1.32/bin/bin/../../lib\libm-elf.a(divsi3.daeo)
                              build/default/production/src/api/ui.o (___divsi3)
c:/program files (x86)/microchip/xc16/v1.32/bin/bin/../../lib\libm-elf.a(feqltle.daeo)
                              build/default/production/src/api/sysdata.o (___eqsf2)
c:/program files (x86)/microchip/xc16/v1.32/bin/bin/../../lib\libm-elf.a(fgtge.daeo)
                              build/default/production/src/api/sysdata.o (___gtsf2)
c:/program files (x86)/microchip/xc16/v1.32/bin/bin/../../lib\libm-elf.a(fixsfsi.daeo)
                              build/default/production/src/api/sysdata.o (_(float, int, long long, short, float, short, int))
c:/program files (x86)/microchip/xc16/v1.32/bin/bin/../../lib\libm-elf.a(fixunssfsi.daeo)
                              build/default/production/src/api/key_menu.o (___fixunssfsi)
c:/program files (x86)/microchip/xc16/v1.32/bin/bin/../../lib\libm-elf.a(floatsisf.daeo)
                              build/default/production/src/api/sysdata.o (___floatsisf)
c:/program files (x86)/microchip/xc16/v1.32/bin/bin/../../lib\libm-elf.a(floatunsisf.daeo)
                              build/default/production/src/api/key_menu.o (___floatunsisf)
c:/program files (x86)/microchip/xc16/v1.32/bin/bin/../../lib\libm-elf.a(fne.daeo)
                              build/default/production/src/api/sysdata.o (___nesf2)
c:/program files (x86)/microchip/xc16/v1.32/bin/bin/../../lib\libm-elf.a(fpack.daeo)
                              c:/program files (x86)/microchip/xc16/v1.32/bin/bin/../../lib\libm-elf.a(addsf3.daeo) (__fpack)
c:/program files (x86)/microchip/xc16/v1.32/bin/bin/../../lib\libm-elf.a(funpack.daeo)
                              c:/program files (x86)/microchip/xc16/v1.32/bin/bin/../../lib\libm-elf.a(fixsfsi.daeo) (__funpack)
c:/program files (x86)/microchip/xc16/v1.32/bin/bin/../../lib\libm-elf.a(funpack2.daeo)
                              c:/program files (x86)/microchip/xc16/v1.32/bin/bin/../../lib\libm-elf.a(addsf3.daeo) (__funpack2)
c:/program files (x86)/microchip/xc16/v1.32/bin/bin/../../lib\libm-elf.a(futil.daeo)
                              c:/program files (x86)/microchip/xc16/v1.32/bin/bin/../../lib\libm-elf.a(addsf3.daeo) (__fPropagateNaN)
c:/program files (x86)/microchip/xc16/v1.32/bin/bin/../../lib\libm-elf.a(modsi3.daeo)
                              build/default/production/src/api/ui.o (___modsi3)
c:/program files (x86)/microchip/xc16/v1.32/bin/bin/../../lib\libm-elf.a(mulsf3.daeo)
                              build/default/production/src/api/key_menu.o (___mulsf3)
c:/program files (x86)/microchip/xc16/v1.32/bin/bin/../../lib\libm-elf.a(udivsi3.daeo)
                              build/default/production/src/api/ui.o (___udivsi3)
c:/program files (x86)/microchip/xc16/v1.32/bin/bin/../../lib\libm-elf.a(umodsi3.daeo)
                              build/default/production/src/api/ui.o (___umodsi3)
c:/program files (x86)/microchip/xc16/v1.32/bin/bin/../../lib\libm-elf.a(fcompare.daeo)
                              c:/program files (x86)/microchip/xc16/v1.32/bin/bin/../../lib\libm-elf.a(feqltle.daeo) (__fcompare)
c:/program files (x86)/microchip/xc16/v1.32/bin/bin/../../lib\libm-elf.a(floatdisf.daeo)
                              c:/program files (x86)/microchip/xc16/v1.32/bin/bin/../../lib\libm-elf.a(floatsisf.daeo) (___floatdisf)
c:/program files (x86)/microchip/xc16/v1.32/bin/bin/../../lib\libm-elf.a(floatundisf.daeo)
                              c:/program files (x86)/microchip/xc16/v1.32/bin/bin/../../lib\libm-elf.a(floatunsisf.daeo) (___floatundisf)


xc16-ld 1.32 (B)

Program Memory  [Origin = 0x200, Length = 0x155f8]

section                    address   length (PC units)   length (bytes) (dec)
-------                    -------   -----------------   --------------------
.text                        0x200               0x788           0xb4c  (2892)
.const                       0x988              0x1280          0x1bc0  (7104)
.text                       0x1c08              0xbade         0x1184d  (71757)
.dinit                      0xd6e6               0x11e           0x1ad  (429)
.text                       0xd804               0x504           0x786  (1926)

                 Total program memory used (bytes):        0x1488c  (84108) 64%


Ivt Memory  [Origin = 0x4, Length = 0xfc]

section                    address   length (PC units)   length (bytes) (dec)
-------                    -------   -----------------   --------------------
.ivt._OscillatorFail           0x6                 0x2             0x3  (3)
.ivt._AddressError             0x8                 0x2             0x3  (3)
.ivt._StackError               0xa                 0x2             0x3  (3)
.ivt._MathError                0xc                 0x2             0x3  (3)
.ivt._T1Interrupt             0x1a                 0x2             0x3  (3)
.ivt._T2Interrupt             0x22                 0x2             0x3  (3)
.ivt._U1RXInterrupt           0x2a                 0x2             0x3  (3)
.ivt._U1TXInterrupt           0x2c                 0x2             0x3  (3)
.ivt._ADC1Interrupt           0x2e                 0x2             0x3  (3)
.ivt._CNInterrupt             0x3a                 0x2             0x3  (3)
.ivt._U2RXInterrupt           0x50                 0x2             0x3  (3)
.ivt._U2TXInterrupt           0x52                 0x2             0x3  (3)
.ivt._RTCCInterrupt           0x90                 0x2             0x3  (3)
.ivt._U1ErrInterrupt          0x96                 0x2             0x3  (3)
.ivt._U2ErrInterrupt          0x98                 0x2             0x3  (3)


Data Memory  [Origin = 0x800, Length = 0x2000]

section                    address      alignment gaps    total length  (dec)
-------                    -------      --------------    -------------------
.nbss                        0x800                   0           0x10a  (266)
.ndata                       0x90a                   0             0x8  (8)
.nbss                        0x912                   0             0xe  (14)
.ndata                       0x920                   0             0x4  (4)
.nbss                        0x924                   0             0xc  (12)
.ndata                       0x930                   0             0x2  (2)
.nbss                        0x932                   0             0x6  (6)
.ndata                       0x938                   0             0x4  (4)
.nbss                        0x93c                   0             0x4  (4)
.bss                         0x940                   0           0x7a8  (1960)
.data                       0x10e8                   0            0x4c  (76)
.bss                        0x1134                   0            0xa4  (164)

                 Total data memory used (bytes):          0x9d8  (2520) 30%


Dynamic Memory Usage

region                     address                      maximum length  (dec)
------                     -------                      ---------------------
heap                             0                                   0  (0)
stack                       0x11d8                              0x1628  (5672)

                 Maximum dynamic memory (bytes):         0x1628  (5672)


External Symbols in Data Memory (by address):

                    0x0800                  _diffPrCalibDataObj
                    0x0804                  _prPrCalibDataObj
                    0x0808                  _ex0PrCalibDataObj
                    0x080c                  _ex1PrCalibDataObj
                    0x0810                  _x_prDiffData
                    0x0818                  _x_prData
                    0x0820                  _x_ex0prData
                    0x0828                  _x_ex1prData
                    0x0830                  _adc_diffPr
                    0x0832                  _adc_bridgeTemp
                    0x0834                  _adc_inPt100
                    0x0836                  _adc_pressure
                    0x0838                  _adc_exPt100
                    0x083a                  _adc_iPrEx
                    0x083e                  _adc_iPrEx0
                    0x0840                  _adc_iPrEx1
                    0x0842                  _adc_ibat
                    0x0844                  _adc_iRef
                    0x0846                  _rtDiffPressure
                    0x084a                  _rtHightOriginal
                    0x084e                  _rtHight
                    0x0852                  _rtWeight
                    0x0856                  _rtVolume
                    0x085a                  _rtLevel
                    0x085c                  _rtTemperatureIn
                    0x0860                  _rtPressure
                    0x0864                  _rtTemperatureEx0
                    0x0868                  _rtTemperatureEx1
                    0x086c                  _rtEx0Pressure
                    0x0870                  _rtEx1Pressure
                    0x0874                  _rtDiffPrOriginal
                    0x0878                  _rtPrOriginal
                    0x087c                  _rtEx0PrOriginal
                    0x0880                  _rtEx1PrOriginal
                    0x0884                  _dwm
                    0x0886                  _modifyPolyCeofficTimer
                    0x0888                  _deviceEvent
                    0x088c                  _sampleFreashFlg
                    0x088d                  _sampleIndex
                    0x088e                  _rtAdcValueDPrBridge
                    0x0890                  _rtAdcValueDPrSignal
                    0x0892                  _rtAdcValuePrBridge
                    0x0894                  _rtAdcValuePrSignal
                    0x0896                  _rtAdcValueTemperatureIn
                    0x0898                  _rtAdcValueChip0Ref0
                    0x089a                  _rtAdcValueChip0Ref1
                    0x089c                  _rtAdcValuePrEx0Signal
                    0x089e                  _rtAdcValuePrEx1Signal
                    0x08a0                  _rtAdcValueTemperatureEx0A
                    0x08a2                  _rtAdcValueTemperatureEx0B
                    0x08a4                  _rtAdcValueTemperatureEx1A
                    0x08a6                  _rtAdcValueTemperatureEx1B
                    0x08a8                  _rtTempRes0
                    0x08ac                  _rtTempRes1
                    0x08b0                  _rtValueBat
                    0x08b2                  _batLevel
                    0x08b4                  _rtValueSolor
                    0x08b6                  _solorLevel
                    0x08b8                  _paramChangedFlag
                    0x08ba                  _passWord
                    0x08bc                  _menu
                    0x08bd                  _subMenu
                    0x08be                  _adjLocation
                    0x08c0                  _adjValue
                    0x08c4                  _tmpAdjValue
                    0x08c8                  _m_floatAdj
                    0x08cc                  _pAdjValue
                    0x08ce                  _calibRow
                    0x08cf                  _calibCol
                    0x08d0                  _noOporatTime
                    0x08d2                  _ad421ObjChip0
                    0x08da                  _ad421ObjChip1
                    0x08e2                  _pAtCmd
                    0x08e4                  _recTimerSec
                    0x08e8                  _atCmdSm
                    0x08ea                  _nbRecLen
                    0x08ec                  _rssi
                    0x08ee                  _nbPsmStateMachine
                    0x08f0                  _tickerMs
                    0x08f4                  _tickerSec
                    0x08f8                  _tickerMsPer10Ms
                    0x08fc                  _timerUsedFlg
                    0x08fe                  _globleTickerMs
                    0x0902                  _globleTickerSec
                    0x0906                  _globleHalfSec
                    0x090a                  _lcdOnTime
                    0x090c                  _blShowTime
                    0x090e                  _sleepSec
                    0x0910                  _sampling
                    0x0912                  _flashOffsetAddr
                    0x0914                  _flashByteTemp
                    0x0916                  _sh_SR
                    0x0918                  _uart2ReceivedCount
                    0x091a                  _uart2RecIdleTime
                    0x091c                  _uart1ReceivedCount
                    0x091e                  _uart1RecIdleTime
                    0x0920                  _hardStatus
                    0x0924                  _event
                    0x0926                  _keyEventCount
                    0x0928                  _lcdBlackNightOn
                    0x0929                  _kzAvddOn
                    0x092a                  _exFunctionSta
                    0x092e                  _tmr2Run
                    0x0934                  _lcdTwinkle
                    0x0936                  _dispIndex
                    0x0938                  _noEventTimeOut
                    0x093a                  _firstSampleFlg
                    0x093c                  _allAds1148PinsSta
                    0x093e                  _keyValue
                    0x093f                  _tmpKeyValue
                    0x0940                  _stSysData
                    0x0a92                  _globleBuffer
                    0x0b92                  _calibTab0
                    0x0c50                  _calibTab1
                    0x0d0e                  _calibTab2
                    0x0dcc                  _calibTab3
                    0x0e8a                  _rtTemperatureInBuf
                    0x0e9a                  _rtDiffPrBuf
                    0x0eaa                  _tmpx
                    0x0eda                  _samlpeBuf
                    0x0f5a                  _nbRecBuf
                    0x0f9a                  _CIMI
                    0x0faa                  _CGSN
                    0x0fba                  _ICCID
                    0x0fd0                  _ads1148Chip0
                    0x1002                  _ads1148Chip1
                    0x104e                  _uart2ReceivedBuf
                    0x10a8                  _uart1ReceivedBuf
                    0x10e8                  _uartTestStr
                    0x1134                  _pLCD
                    0x1174                  _at24c02Obj0
                    0x1184                  _at24c02Obj1
                    0x1194                  _at24c02Obj2
                    0x11a4                  _at24c02Obj3

External Symbols in Data Memory (by name):

                    0x0faa                  _CGSN
                    0x0f9a                  _CIMI
                    0x0fba                  _ICCID
                    0x08d2                  _ad421ObjChip0
                    0x08da                  _ad421ObjChip1
                    0x0832                  _adc_bridgeTemp
                    0x0830                  _adc_diffPr
                    0x0838                  _adc_exPt100
                    0x083a                  _adc_iPrEx
                    0x083e                  _adc_iPrEx0
                    0x0840                  _adc_iPrEx1
                    0x0844                  _adc_iRef
                    0x0842                  _adc_ibat
                    0x0834                  _adc_inPt100
                    0x0836                  _adc_pressure
                    0x08be                  _adjLocation
                    0x08c0                  _adjValue
                    0x0fd0                  _ads1148Chip0
                    0x1002                  _ads1148Chip1
                    0x093c                  _allAds1148PinsSta
                    0x1174                  _at24c02Obj0
                    0x1184                  _at24c02Obj1
                    0x1194                  _at24c02Obj2
                    0x11a4                  _at24c02Obj3
                    0x08e8                  _atCmdSm
                    0x08b2                  _batLevel
                    0x090c                  _blShowTime
                    0x08cf                  _calibCol
                    0x08ce                  _calibRow
                    0x0b92                  _calibTab0
                    0x0c50                  _calibTab1
                    0x0d0e                  _calibTab2
                    0x0dcc                  _calibTab3
                    0x0888                  _deviceEvent
                    0x0800                  _diffPrCalibDataObj
                    0x0936                  _dispIndex
                    0x0884                  _dwm
                    0x0924                  _event
                    0x0808                  _ex0PrCalibDataObj
                    0x080c                  _ex1PrCalibDataObj
                    0x092a                  _exFunctionSta
                    0x093a                  _firstSampleFlg
                    0x0914                  _flashByteTemp
                    0x0912                  _flashOffsetAddr
                    0x0a92                  _globleBuffer
                    0x0906                  _globleHalfSec
                    0x08fe                  _globleTickerMs
                    0x0902                  _globleTickerSec
                    0x0920                  _hardStatus
                    0x0926                  _keyEventCount
                    0x093e                  _keyValue
                    0x0929                  _kzAvddOn
                    0x0928                  _lcdBlackNightOn
                    0x090a                  _lcdOnTime
                    0x0934                  _lcdTwinkle
                    0x08c8                  _m_floatAdj
                    0x08bc                  _menu
                    0x0886                  _modifyPolyCeofficTimer
                    0x08ee                  _nbPsmStateMachine
                    0x0f5a                  _nbRecBuf
                    0x08ea                  _nbRecLen
                    0x0938                  _noEventTimeOut
                    0x08d0                  _noOporatTime
                    0x08cc                  _pAdjValue
                    0x08e2                  _pAtCmd
                    0x1134                  _pLCD
                    0x08b8                  _paramChangedFlag
                    0x08ba                  _passWord
                    0x0804                  _prPrCalibDataObj
                    0x08e4                  _recTimerSec
                    0x08ec                  _rssi
                    0x0898                  _rtAdcValueChip0Ref0
                    0x089a                  _rtAdcValueChip0Ref1
                    0x088e                  _rtAdcValueDPrBridge
                    0x0890                  _rtAdcValueDPrSignal
                    0x0892                  _rtAdcValuePrBridge
                    0x089c                  _rtAdcValuePrEx0Signal
                    0x089e                  _rtAdcValuePrEx1Signal
                    0x0894                  _rtAdcValuePrSignal
                    0x08a0                  _rtAdcValueTemperatureEx0A
                    0x08a2                  _rtAdcValueTemperatureEx0B
                    0x08a4                  _rtAdcValueTemperatureEx1A
                    0x08a6                  _rtAdcValueTemperatureEx1B
                    0x0896                  _rtAdcValueTemperatureIn
                    0x0e9a                  _rtDiffPrBuf
                    0x0874                  _rtDiffPrOriginal
                    0x0846                  _rtDiffPressure
                    0x087c                  _rtEx0PrOriginal
                    0x086c                  _rtEx0Pressure
                    0x0880                  _rtEx1PrOriginal
                    0x0870                  _rtEx1Pressure
                    0x084e                  _rtHight
                    0x084a                  _rtHightOriginal
                    0x085a                  _rtLevel
                    0x0878                  _rtPrOriginal
                    0x0860                  _rtPressure
                    0x08a8                  _rtTempRes0
                    0x08ac                  _rtTempRes1
                    0x0864                  _rtTemperatureEx0
                    0x0868                  _rtTemperatureEx1
                    0x085c                  _rtTemperatureIn
                    0x0e8a                  _rtTemperatureInBuf
                    0x08b0                  _rtValueBat
                    0x08b4                  _rtValueSolor
                    0x0856                  _rtVolume
                    0x0852                  _rtWeight
                    0x0eda                  _samlpeBuf
                    0x088c                  _sampleFreashFlg
                    0x088d                  _sampleIndex
                    0x0910                  _sampling
                    0x0916                  _sh_SR
                    0x090e                  _sleepSec
                    0x08b6                  _solorLevel
                    0x0940                  _stSysData
                    0x08bd                  _subMenu
                    0x08f0                  _tickerMs
                    0x08f8                  _tickerMsPer10Ms
                    0x08f4                  _tickerSec
                    0x08fc                  _timerUsedFlg
                    0x08c4                  _tmpAdjValue
                    0x093f                  _tmpKeyValue
                    0x0eaa                  _tmpx
                    0x092e                  _tmr2Run
                    0x091e                  _uart1RecIdleTime
                    0x10a8                  _uart1ReceivedBuf
                    0x091c                  _uart1ReceivedCount
                    0x091a                  _uart2RecIdleTime
                    0x104e                  _uart2ReceivedBuf
                    0x0918                  _uart2ReceivedCount
                    0x10e8                  _uartTestStr
                    0x0820                  _x_ex0prData
                    0x0828                  _x_ex1prData
                    0x0818                  _x_prData
                    0x0810                  _x_prDiffData

External Symbols in Program Memory (by address):

                  0x000200                  __resetPRI
                  0x00023c                  __psv_init
                  0x000252                  __data_init
                  0x000252                  __data_init_da
                  0x000390                  __T2Interrupt
                  0x0003be                  __T1Interrupt
                  0x0003ec                  __OscillatorFail
                  0x0003f4                  __StackError
                  0x0003fe                  __AddressError
                  0x000406                  __MathError
                  0x00040e                  __U2TXInterrupt
                  0x000418                  __U2RXInterrupt
                  0x000464                  __U2ErrInterrupt
                  0x00047a                  __U1TXInterrupt
                  0x000484                  __U1RXInterrupt
                  0x0004d0                  __U1ErrInterrupt
                  0x0004e6                  __ADC1Interrupt
                  0x000502                  __Interrupt100
                  0x00050e                  __CNInterrupt
                  0x000572                  __RTCCInterrupt
                  0x000590                  __DefaultInterrupt
                  0x000596                  ___subsf3
                  0x000598                  ___addsf3
                  0x000652                  ___divsf3
                  0x0006d6                  ___divsi3
                  0x0006f4                  ___lesf2
                  0x0006f4                  ___eqsf2
                  0x0006f4                  ___ltsf2
                  0x0006f8                  ___gesf2
                  0x0006f8                  ___gtsf2
                  0x0006fc                  ___fixsfsi
                  0x00073e                  ___fixunssfsi
                  0x000774                  ___floatsisf
                  0x00077a                  ___floatunsisf
                  0x00077e                  ___nesf2
                  0x000782                  __fpack
                  0x0007ce                  __funpack
                  0x0007f8                  __funpack2
                  0x000808                  __fPropagateNaN
                  0x00081a                  __fbopExit
                  0x000822                  __fbopReturnNaN
                  0x000828                  ___modsi3
                  0x000846                  ___mulsf3
                  0x0008ae                  ___udivsi3
                  0x0008ce                  ___umodsi3
                  0x0008d4                  __fcompare
                  0x00090a                  ___floatdisf
                  0x00092a                  ___floatundisf
                  0x000988                  _hKcy
                  0x000b1c                  _hKel
                  0x000cb0                  _pt100ResTempTable
                  0x0012f4                  _defultSystemData
                  0x001452                  _AT_CMD_AT
                  0x00145e                  _AT_CMD_ATI
                  0x001472                  _AT_CMD_QSECSWT
                  0x001488                  _AT_CMD_QSECSWT_S
                  0x0014a4                  _AT_CMD_CFUN_0
                  0x0014c6                  _AT_CMD_CFUN_R
                  0x0014d8                  _AT_CMD_CFUN
                  0x0014ea                  _AT_CMD_CMEE
                  0x001506                  _AT_CMD_NRB
                  0x001516                  _AT_CMD_CMI
                  0x001528                  _AT_CMD_CGSN
                  0x00153c                  _AT_CMD_NUESTATS
                  0x00154e                  _AT_CMD_NBAND_R
                  0x001570                  _AT_CMD_CGDCONT
                  0x001592                  _AT_CMD_CGDCONT_COAP
                  0x0015b4                  _AT_CMD_CGDCONT_R
                  0x0015c8                  _AT_CMD_CGATT
                  0x0015e8                  _AT_CMD_CGATT_R
                  0x00160c                  _AT_CMD_CGATT_R_COAP
                  0x00161c                  _AT_CMD_CSQ
                  0x00163a                  _AT_CMD_CEREG_R
                  0x001656                  _AT_CMD_CEREG_Rn
                  0x00166a                  _AT_CMD_CEREG
                  0x00168c                  _AT_CMD_NSOCR
                  0x0016ac                  _AT_CMD_NCDP
                  0x0016be                  _AT_CMD_NCDP_R
                  0x0016d0                  _AT_CMD_NSOCR_R
                  0x0016e4                  _AT_CMD_NSOCL
                  0x0016fc                  _AT_CMD_NSORF
                  0x00170c                  _AT_CMD_CGMR
                  0x00171e                  _AT_CMD_NCCID
                  0x001730                  _AT_CMD_NQMGR
                  0x001740                  _AT_CMD_NMGR
                  0x001754                  _AT_CMD_CGPADDR
                  0x00175a                  _auchCRCHi
                  0x00185a                  _auchCRCLo
                  0x001a8e                  _LCDDigitalIndexTable
                  0x001abb                  _LCDDigitalTable
                  0x001ae7                  _LCDDigitalTableIndexEx
                  0x001b28                  _LCDDigitalTableEx
                  0x001bea                  _HexTable
                  0x001bfc                  _ads1148DefaultBuf
                  0x001c08                  ___exp_10
                  0x001c3c                  ___sys_data_save_write_flash
                  0x001c8e                  _key_waite_release
                  0x001cce                  ___enter_root_enable
                  0x001cfa                  _key_shift_loc
                  0x001d3a                  _key_adj_value_fixed
                  0x001da0                  _key_adj_value_fixed_t8
                  0x001e38                  _key_adj_value_float
                  0x001eaa                  _key_process_up_down_variable_speed_ex
                  0x001f94                  ___enter_menu_password
                  0x001fa4                  ___enter_menu_set_pdc_chang_psd
                  0x002020                  ___enter_menu_set_pdc
                  0x00204c                  ___enter_menu_set_density
                  0x002070                  ___enter_menu_set_pose_size
                  0x002090                  ___enter_menu_set_d
                  0x0020bc                  ___enter_menu_set_h
                  0x0020e8                  ___enter_menu_set_base_zero
                  0x00211e                  ___enter_menu_calib_press_diff
                  0x00218e                  ___enter_menu_calib_press
                  0x0021fe                  ___enter_menu_ex0_pr_calib
                  0x00226e                  ___enter_menu_ex1_pr_calib
                  0x0022de                  ___enter_menu_calib_dpr_2nd
                  0x00231a                  ___enter_menu_calib_pr_2nd
                  0x002342                  ___enter_menu_calib_epr0_2nd
                  0x00236a                  ___enter_menu_calib_epr1_2nd
                  0x002388                  ___enter_menu_set_temp_ex0
                  0x00239e                  ___enter_menu_set_temp_ex1
                  0x0023b4                  ___enter_menu_poly_coeffic
                  0x0023e0                  ___enter_menu_poly_coeffic_mod
                  0x002418                  ___enter_menu_warn_type
                  0x002448                  ___enter_menu_warn_value
                  0x0024a6                  ___enter_menu_ilp_scale
                  0x002512                  ___enter_menu_ilp_adjust
                  0x002562                  ___enter_menu_bar_scale
                  0x00257e                  ___enter_menu_work_mode
                  0x002594                  ___enter_menu_set_ext_show_mode
                  0x0025aa                  ___enter_menu_set_wakeup_period
                  0x0025c2                  ___enter_menu_set_rf_send_period
                  0x0025da                  ___enter_menu_set_bl_on_tm
                  0x0025f0                  ___enter_menu_set_lcd_on_tm
                  0x002606                  ___enter_menu_set_modbus_addr
                  0x00261c                  ___enter_menu_show_ver
                  0x002628                  ___exit_menu_to_home_unsave
                  0x00264a                  ___down_base_zero_adj
                  0x0026ae                  ___down_pose_size
                  0x0026ca                  ___down_density
                  0x0026de                  ___down_dpr_calib
                  0x0026f2                  ___down_ex0_pr_calib
                  0x002706                  ___down_ex1_pr_calib
                  0x00271a                  ___down_pr_calib
                  0x00272e                  ___down_home_adj
                  0x00277a                  ___down_home_adj_test
                  0x0027a0                  ___down_ilp_adjust_value_adj
                  0x0027b0                  ___down_adj_modbus_id
                  0x0027c0                  ___down_adj_lcd_on_tm
                  0x0027d0                  ___down_adj_rf_send_period
                  0x0027fc                  ___down_poly_coefic_adj_mod
                  0x002880                  _key_process_down
                  0x0029b8                  ___up_home_adj
                  0x0029fe                  ___up_adj_pcd
                  0x002a0c                  ___up_psw_adj
                  0x002a1a                  ___up_density_adj_sel_matter
                  0x002a5e                  ___up_density_adj
                  0x002a80                  ___up_pose_size_adj
                  0x002aca                  ___up_base_zero_adj
                  0x002b2e                  ___up_diff_calib_adj
                  0x002b66                  ___up_pr_calib_adj
                  0x002b9e                  ___up_ex0_pr_calib_adj
                  0x002bd6                  ___up_ex1_pr_calib_adj
                  0x002c0e                  ___up_poly_coefic_adj
                  0x002c1c                  ___up_poly_coefic_adj_mod
                  0x002c8c                  ___up_warn_type_adj
                  0x002cae                  ___up_warn_value_adj
                  0x002cbc                  ___up_etemp_calib_adj
                  0x002cca                  ___up_epr_ilp_scale_adj
                  0x002cd8                  ___up_ilp_adjust_value_adj
                  0x002ce8                  ___up_adj_bar_level_scale
                  0x002d1c                  ___up_adj_work_mode
                  0x002d3c                  ___up_adj_ext_show_mode
                  0x002d5c                  ___up_adj_wakeup_period
                  0x002db8                  ___up_adj_rf_send_period
                  0x002ddc                  ___up_adj_bl_on_tm
                  0x002e2a                  ___up_adj_lcd_on_tm
                  0x002e3a                  ___up_adj_modbus_id
                  0x002e4a                  _key_process_up
                  0x0030d0                  _key_process_set_all_long
                  0x0030e6                  _key_process_set_up_long_root
                  0x003280                  _key_process_set_up_long_user
                  0x00338a                  ___set_short_pdc
                  0x0033c6                  ___set_short_density
                  0x003424                  ___set_short_pose_size
                  0x0034b6                  ___set_short_diff_calib
                  0x00361c                  ___set_short_pr_calib
                  0x0037fe                  ___set_short_ex0_pr_calib
                  0x00394a                  ___set_short_ex1_pr_calib
                  0x003a96                  ___set_short_ex0_etemp_calib
                  0x003ae0                  ___set_short_ex1_etemp_calib
                  0x003b2a                  ___set_short_poly_coefic
                  0x003b6a                  ___set_short_warn_type
                  0x003bae                  ___set_short_warn_value
                  0x003c20                  ___set_short_calib_dpr_2nd
                  0x003c90                  ___set_short_calib_pr_2nd
                  0x003cb4                  ___set_short_calib_epr0_2nd
                  0x003cd8                  ___set_short_calib_epr1_2nd
                  0x003cfc                  ___set_short_ilp_scale
                  0x003d7c                  ___set_short_ilp_adjust_value
                  0x003dda                  ___set_long_density
                  0x003e14                  ___set_long_base_zero
                  0x003e48                  ___set_long_bar_level_scale
                  0x003e60                  ___set_long_work_mode
                  0x003e74                  ___set_long_ext_show_mode
                  0x003e8a                  ___set_long_wake_up_period
                  0x003e9a                  ___set_long_rf_send_period
                  0x003eaa                  ___set_long_poly_coefic_adj_mod
                  0x003eb6                  ___set_long_bl_on_tm
                  0x003ecc                  ___set_long_lcd_on_tm
                  0x003ee2                  ___set_long_modbus_id
                  0x003ef8                  _key_process_set_long
                  0x004190                  _key_process_set
                  0x0042c0                  _no_operation_save_exit
                  0x00430e                  _key_process
                  0x00444c                  _lcd_disp_level_bar
                  0x004946                  _lcd_disp_level
                  0x00498a                  _lcd_disp_level_off
                  0x0049a6                  _lcd_disp_battary_bar
                  0x004a2c                  _lcd_disp_battary
                  0x004a64                  _lcd_disp_battary_off
                  0x004a7e                  _lcd_disp_rf_bar
                  0x004b08                  _lcd_disp_rf
                  0x004b5a                  _lcd_disp_rf_off
                  0x004b74                  _lcd_disp_light_bar
                  0x004bc0                  _lcd_disp_light
                  0x004bf2                  _lcd_disp_light_off
                  0x004c04                  _lcd_disp_chr_loc_0
                  0x004cb8                  _lcd_disp_dp_loc_0
                  0x004cd4                  _lcd_disp_chr_loc_1
                  0x004d7c                  _lcd_disp_dp_loc_1
                  0x004d98                  _lcd_disp_chr_loc_2
                  0x004e40                  _lcd_disp_dp_loc_2
                  0x004e5c                  _lcd_disp_chr_loc_3
                  0x004f04                  _lcd_disp_chr_loc_4
                  0x004fb8                  _lcd_disp_dp_loc_4
                  0x004fd4                  _lcd_disp_chr_loc_5
                  0x00507c                  _lcd_disp_dp_loc_5
                  0x005098                  _lcd_disp_chr_loc_6
                  0x005140                  _lcd_disp_dp_loc_6
                  0x00515c                  _lcd_disp_chr_loc_7
                  0x005204                  _lcd_disp_logo
                  0x00520c                  _lcd_disp_unit_t
                  0x005234                  _lcd_disp_unit_1st_m
                  0x00525c                  _lcd_disp_unit_1st_m3
                  0x00528a                  _lcd_disp_unit_temperature
                  0x0052a6                  _lcd_disp_unit_2nd_m
                  0x0052d4                  _lcd_disp_unit_2nd_m3
                  0x005308                  _lcd_disp_unit_mpa
                  0x005336                  _lcd_disp_chr_loc_0_ex
                  0x0055a8                  _lcd_disp_chr_loc_1_ex
                  0x00581a                  _lcd_disp_chr_loc_2_ex
                  0x005a8c                  _lcd_disp_chr_loc_0_sm
                  0x005b34                  _lcd_disp_chr_loc_1_sm
                  0x005bdc                  _lcd_disp_chr_loc_2_sm
                  0x005c84                  _lcd_disp_dp_loc_0_sm
                  0x005ca0                  _lcd_disp_dp_loc_1_sm
                  0x005cbc                  _lcd_disp_dp_loc_sign_sm
                  0x005cd8                  _lcd_disp_dp_loc_sm_temperature
                  0x005cf4                  _lcd_show_dp_sm
                  0x005d16                  _lcd_clear_all_dp_sm
                  0x005d24                  _lcd_disp_get_code
                  0x005d62                  _lcd_disp_get_code_ex
                  0x005da0                  _lcd_clear_all_dp
                  0x005dbe                  _lcd_show_dp
                  0x005e0e                  _lcd_show_chr
                  0x005e7a                  _lcd_show_chr_sm
                  0x005eb0                  _lcd_show_chr_ex
                  0x005ee6                  _lcd_show_string_sm
                  0x005f14                  _lcd_show_string_ex
                  0x005f42                  _lcd_show_chr_lc
                  0x005f72                  _lcd_show_string_l0
                  0x005fa0                  _lcd_show_string_l1
                  0x005fce                  _lcd_show_string
                  0x005ffc                  _lcd_disp_refresh
                  0x006092                  _lcd_disp_all
                  0x0060b4                  _lcd_config
                  0x006136                  _lcd_init
                  0x00614a                  ___x_arrange_str
                  0x006184                  ___int32_2_mflot32_02
                  0x00622a                  _ui_disp_xfloat_pt_02
                  0x00625c                  ___int32_2_mflot32
                  0x006302                  ___mflot32_2_int32
                  0x006366                  _ui_disp_all_on
                  0x006372                  _ui_disp_all_off
                  0x00637e                  _ui_disp_start_cs600
                  0x0063ce                  _ui_disp_rtc_mm_ss
                  0x0063d4                  _ui_disp_clear_num_dp
                  0x006402                  _ui_disp_adj_xfloat_pt
                  0x00655e                  _ui_disp_adj_xfixed
                  0x0065b2                  _ui_disp_adj_xfixed_static
                  0x0065f2                  _ui_disp_adj_xfixed_static_3
                  0x006638                  _ui_disp_adj_xfixed_pt
                  0x006696                  _ui_disp_adj_xfixed_pt_t8
                  0x006734                  _ui_disp_adj_xfixed_pt_dp
                  0x00679c                  _ui_disp_xfloat_pt_twinkle
                  0x006872                  _ui_disp_xfloat_pt_ex
                  0x006908                  _ui_disp_xfloat_pt
                  0x00699e                  _ui_disp_menu_pdc
                  0x0069e2                  _ui_disp_menu_set_pdc
                  0x006a64                  _ui_disp_menu_psw_adj
                  0x006a7c                  _ui_disp_menu_home_test
                  0x006a88                  _ui_disp_home_sm_tmp_in
                  0x006b26                  _ui_disp_home_sm_ex
                  0x006b50                  _ui_disp_ext_loop
                  0x006da8                  _ui_disp_menu_home
                  0x006f50                  _ui_disp_menu_density_sel_matter
                  0x006fac                  _ui_disp_menu_density_sel_custom
                  0x006fec                  _ui_disp_menu_density_adj
                  0x007008                  _ui_disp_menu_pos_adj
                  0x007042                  _ui_disp_menu_h_adj
                  0x007070                  _ui_disp_menu_d_adj
                  0x00708a                  _ui_disp_menu_pose_size
                  0x0070b0                  _ui_disp_menu_bzero_adj
                  0x0070e8                  _ui_disp_menu_calib_adj_x
                  0x00716e                  _ui_disp_menu_poly_c_adj
                  0x0071a8                  _ui_disp_menu_warn_t_adj
                  0x00721c                  _ui_disp_menu_warn_v_adj
                  0x007292                  _ui_disp_menu_calib_ex0_temp_adj
                  0x007308                  _ui_disp_menu_calib_ex1_temp_adj
                  0x00737e                  _ui_disp_menu_epr_ilp_scale_adj
                  0x0073da                  _ui_disp_menu_ilp_adj
                  0x007424                  _ui_disp_menu_bar_full_adj
                  0x00743a                  _ui_disp_menu_work_mode_adj
                  0x007468                  _ui_disp_menu_ext_show_mode
                  0x007496                  _ui_disp_menu_wake_up_period
                  0x0074ba                  _ui_disp_menu_rf_send_period
                  0x0074de                  _ui_disp_menu_poly_coefic_adj_mod
                  0x007522                  _ui_disp_menu_calib_dpr_2nd
                  0x007556                  _ui_disp_menu_calib_x_2nd
                  0x00760c                  _ui_disp_menu_bl_on_tm
                  0x007660                  _ui_disp_menu_lcd_on_tm
                  0x007678                  _ui_disp_menu_modbus_id
                  0x007690                  _ui_disp_menu_ver
                  0x0076ac                  _ui_disp_menu
                  0x00793a                  _data_sys_get_density
                  0x007952                  _data_sys_cal_v1
                  0x0079c4                  _data_sys_cal_v2
                  0x007a08                  _data_sys_init
                  0x007a80                  _data_sys_save
                  0x007ad8                  _calib_data_put_piont_tab
                  0x007b34                  _calib_data_set_default
                  0x007c2e                  _cal_smoothing_filter
                  0x007cb4                  _m_interp1_cal_p_s
                  0x007e9c                  _m_interp1_cal_p_t
                  0x007fbe                  _m_interp1_float_fast
                  0x008040                  _calib_data_obj_init
                  0x0080c6                  _data_init_all
                  0x008144                  _cal_diff_hight_to_vol_h
                  0x00822c                  _cal_diff_hight_level
                  0x0082da                  _cal_diff_hight_to_vol_v
                  0x0084b0                  _cal_diff_p_to_h
                  0x0084f8                  _cal_diff_vol_to_t
                  0x008534                  _calculate_and_compensate
                  0x00859a                  _calc_res_2_temp
                  0x0086b6                  _cal_battery_voltage
                  0x0086bc                  _calc_warning_pr_dpr
                  0x00885a                  _calc_dpr_iloop_out_put
                  0x0088da                  _calc_dpr_iloop_out_put_ex
                  0x008992                  _calc_pr_iloop_out_put
                  0x008a12                  _calc_pr_iloop_out_put_ex
                  0x008aca                  _abs_diff
                  0x008ae6                  _samlpe_get_adc_average_value_ex
                  0x008be6                  _samlpe_read_adc
                  0x008c82                  _samlpe_read_adc_ex
                  0x008d08                  _samlpe_chip0_ch_diff_pr_bridge
                  0x008d60                  _samlpe_chip0_ch_diff_pr_signal
                  0x008db0                  _sample_calc_calib_dpr_2nd
                  0x008e4c                  _sample_calc_calib_x_2nd
                  0x008e68                  _sample_calc_diff_press_fliter
                  0x008ef0                  _sample_calc_diff_press_static_err
                  0x00902a                  _sample_calc_diff_press_fi_full
                  0x009098                  _sample_calc_diff_press
                  0x009140                  _samlpe_chip0_ch_pr_bridge
                  0x0091a8                  _samlpe_chip0_ch_pr_signal
                  0x0091f8                  _samlpe_chip0_ch_temperature_in
                  0x009272                  _samlpe_chip0_ch_diff_pr_ref0
                  0x0092b4                  _sample_calc_press
                  0x009306                  _sample_calc_temperature_in
                  0x00937a                  _samlpe_chip1_ch_expr0_signal
                  0x0093e6                  _sample_calc_press_ex0
                  0x00943c                  _samlpe_chip1_ch_ex0_temperature_A
                  0x0094a8                  _samlpe_chip1_ch_ex0_temperature_B
                  0x0094f6                  _sample_calc_temperature_ex0
                  0x0095e0                  _samlpe_chip1_ch_expr1_signal
                  0x00964c                  _sample_calc_press_ex1
                  0x0096a2                  _samlpe_chip1_ch_ex1_temperature_A
                  0x00970e                  _samlpe_chip1_ch_ex1_temperature_B
                  0x00975c                  _sample_calc_temperature_ex1
                  0x009844                  _ain_ref_config
                  0x009856                  _ain_bat_config
                  0x009868                  _sample_in_soc_solar
                  0x009922                  _samlpe_in_soc_battery
                  0x0099e8                  _samlpe_in_soc_ref
                  0x0099ee                  _sample_process
                  0x009aae                  _ads1148_send_cmd
                  0x009ade                  _ads1148_read_data
                  0x009b40                  _ads1148_write_register
                  0x009bb2                  _ads1148_read_register
                  0x009c2a                  _ads1148_slef_calibration
                  0x009c54                  _ads1148_set_channle_normal
                  0x009cc6                  _ads1148_set_bcs
                  0x009d22                  _ads1148_set_vbias
                  0x009d3a                  _ads1148_set_vref
                  0x009dbe                  _ads1148_set_muxcal
                  0x009e24                  _ads1148_set_data_rate
                  0x009e80                  _ads1148_set_ani_pga
                  0x009ee0                  _ads1148_set_imag_idac
                  0x009f3c                  _ads1148_set_drdy_mode
                  0x009f9a                  _ads1148_set_idac1_pins
                  0x009ff6                  _ads1148_set_idac2_pins
                  0x00a052                  _ads1148_set_idac12_pins
                  0x00a0c0                  _ads1148_get_all_register
                  0x00a0d6                  _ads1148_set_mux0_ex
                  0x00a122                  _ads1148_set_vbias_ex
                  0x00a132                  _ads1148_set_mux1_ex
                  0x00a182                  _ads1148_set_sys0_ex
                  0x00a1bc                  _ads1148_set_idac0_ex
                  0x00a1f4                  _ads1148_set_idac1_ex
                  0x00a22a                  _ads1148_set_config_ex
                  0x00a24e                  _ads1148_init_obj_0
                  0x00a28e                  _ads1148_init_obj_1
                  0x00a2ce                  _ads1148_set_sync
                  0x00a304                  _ads1148_set_ready
                  0x00a34c                  _ads1148_init_chip_regs
                  0x00a3d2                  _ads1148_init_all_obj
                  0x00a3dc                  _ads1148_init_device
                  0x00a3fe                  _ads1148_pre_sleep
                  0x00a41a                  _ads1148_post_sleep
                  0x00a432                  _ads1148_start_convert
                  0x00a440                  _ads1148_stop_convert
                  0x00a44e                  _ads1148_waite_convert
                  0x00a49e                  _ads1148_test
                  0x00a4ee                  _nb_process_disable_sleep_in_lwp
                  0x00a4f8                  _nb_at_cmd_recbuf_init
                  0x00a508                  _nb_at_cmd_waite_resp
                  0x00a56a                  _nb_at_cmd_ex
                  0x00a5ee                  _nb_power_on_process_waite_ok
                  0x00a666                  _nb_extract_cimi
                  0x00a692                  _nb_extract_cgsn
                  0x00a6c0                  _nb_extract_nccid
                  0x00a6f0                  _nb_module_nbr
                  0x00a706                  _nb_coap_ncbp
                  0x00a776                  _nb_get_csq
                  0x00a812                  _nb_module_cfun_off
                  0x00a828                  _nb_coap_enter_psm
                  0x00a83e                  _nb_coap_psm_send_ready
                  0x00aae0                  _nb_send_packet_load
                  0x00aaec                  _nb_udp_send_load_coap
                  0x00ab8e                  _nb_send_coap
                  0x00ac42                  _my_scanf_int16
                  0x00acea                  _np_received_extract_coap
                  0x00ad34                  _nb_received_coap
                  0x00add0                  _nb_received_process
                  0x00addc                  _nb_process
                  0x00ae3c                  _m_mem_set
                  0x00ae66                  _m_mem_cpy_len
                  0x00ae90                  _m_mem_cpy
                  0x00aeba                  _m_str_cpy
                  0x00aef0                  _m_str_cmp
                  0x00af30                  _m_str_cmp_len
                  0x00af76                  _m_str_match
                  0x00afe4                  _m_str_match_ex
                  0x00b056                  _m_math_pow
                  0x00b0ae                  _m_int_2_str
                  0x00b132                  _m_str_head_hide
                  0x00b174                  _HEX8
                  0x00b1a8                  _m_str_b2h
                  0x00b204                  _m_str_h2b
                  0x00b30e                  _m_int8_2_hex
                  0x00b344                  _m_int16_2_str_4
                  0x00b3ee                  _m_int16_2_str_3
                  0x00b46a                  _int16_2_d
                  0x00b4c4                  _m_system_init
                  0x00b4cc                  _thread_main_pre
                  0x00b532                  _event_sample_real_time_mode
                  0x00b582                  _event_sample_sleep_wake_mode
                  0x00b606                  _event_iloop_out_put_adj
                  0x00b6ac                  _event_iloop_out_put
                  0x00b730                  _event_enter_sleep
                  0x00b76a                  _event_call_disp
                  0x00b7a2                  _event_rtc_bl_off
                  0x00b7d0                  _event_rtc_no_operation_tm_out
                  0x00b7ea                  _event_rtc_lcd_off
                  0x00b83c                  _event_rtc_modify_poly_coeffic
                  0x00b870                  _main
                  0x00b938                  _kz_qy_vcc_enable
                  0x00b950                  _kz_qy_vcc_disable
                  0x00b962                  _kz_vadd_on
                  0x00b988                  _kz_vadd_off
                  0x00b9a2                  _back_night_on
                  0x00b9ce                  _back_night_off
                  0x00b9e8                  _status_ma_mode_in
                  0x00b9fa                  _get_ex_function_status
                  0x00ba26                  _all_status_pins_mod_in
                  0x00ba5c                  _all_status_pins_mod_out
                  0x00baaa                  _rs_485_set_rx
                  0x00bac2                  _rs_485_set_tx
                  0x00bada                  _check_solor_set_hight
                  0x00baf2                  _check_solor_set_low
                  0x00bb0a                  _ain_solor_config
                  0x00bb1c                  _all_bj_init
                  0x00bb40                  _all_bj_disable
                  0x00bb5e                  _bj_1_on
                  0x00bb6a                  _bj_2_on
                  0x00bb76                  _bj_3_on
                  0x00bb82                  _bj_4_on
                  0x00bb8e                  _bj_1_off
                  0x00bb9a                  _bj_2_off
                  0x00bba6                  _bj_3_off
                  0x00bbb2                  _bj_4_off
                  0x00bbbe                  _bj_all_on
                  0x00bbd2                  _bj_all_off
                  0x00bbe6                  _bj_output
                  0x00bc46                  _run_status_init
                  0x00bc58                  _pre_system_sleep_deinit_all_pins
                  0x00bc7a                  _unused_pins_deinit
                  0x00bca0                  _gsm_en_pins_config
                  0x00bca6                  _gsm_module_enable
                  0x00bcbe                  _gsm_module_disable
                  0x00bcd0                  _gsm_rst_pins_config
                  0x00bcd6                  _gsm_rst_enable
                  0x00bcee                  _gsm_rst_release
                  0x00bd00                  _gps_en_pins_config
                  0x00bd06                  _gps_module_enable
                  0x00bd18                  _gps_module_disable
                  0x00bd24                  _gps_rst_pins_config
                  0x00bd2a                  _gps_rst_enable
                  0x00bd42                  _gps_rst_release
                  0x00bd54                  _pre_system_sleep
                  0x00bd88                  _ads1148_hal_sck_mod_out
                  0x00bda0                  _ads1148_hal_sck_set_hight
                  0x00bdac                  _ads1148_hal_sck_set_low
                  0x00bdb8                  _ads1148_hal_sck_mod_in
                  0x00bdca                  _ads1148_hal_din_mod_out
                  0x00bddc                  _ads1148_hal_din_set_hight
                  0x00bde8                  _ads1148_hal_din_set_low
                  0x00bdf4                  _ads1148_hal_din_mod_in
                  0x00be06                  _ads1148_hal_din_get
                  0x00be16                  _ads1148_hal_dout_mod_out
                  0x00be2e                  _ads1148_hal_dout_set_hight
                  0x00be3a                  _ads1148_hal_dout_set_low
                  0x00be46                  _ads1148_hal_dout_mod_in
                  0x00be58                  _ads1148_hal_drdy_0_mod_out
                  0x00be6e                  _ads1148_hal_drdy_0_set_hight
                  0x00be7c                  _ads1148_hal_drdy_0_set_low
                  0x00be8a                  _ads1148_hal_drdy_0_mod_in
                  0x00bea0                  _ads1148_hal_drdy_0_get
                  0x00beb2                  _ads1148_hal_cs_0_mod_out
                  0x00beca                  _ads1148_hal_cs_0_mod_in
                  0x00bedc                  _ads1148_hal_cs_0_set_hight
                  0x00bee8                  _ads1148_hal_cs_0_set_low
                  0x00befe                  _ads1148_hal_start_0_mod_out
                  0x00bf16                  _ads1148_hal_start_0_set_hight
                  0x00bf22                  _ads1148_hal_start_0_set_low
                  0x00bf2e                  _ads1148_hal_start_0_mod_in
                  0x00bf40                  _ads1148_hal_drdy_1_mod_out
                  0x00bf52                  _ads1148_hal_drdy_1_set_hight
                  0x00bf5e                  _ads1148_hal_drdy_1_set_low
                  0x00bf6a                  _ads1148_hal_drdy_1_mod_in
                  0x00bf7c                  _ads1148_hal_drdy_1_get
                  0x00bf8a                  _ads1148_hal_cs_1_mod_out
                  0x00bfa2                  _ads1148_hal_cs_1_set_hight
                  0x00bfae                  _ads1148_hal_cs_1_set_low
                  0x00bfc4                  _ads1148_hal_cs_1_mod_in
                  0x00bfd6                  _ads1148_hal_start_1_mod_out
                  0x00bfee                  _ads1148_hal_start_1_set_hight
                  0x00bffa                  _ads1148_hal_start_1_set_low
                  0x00c006                  _ads1148_hal_start_1_mod_in
                  0x00c018                  _ads1148_hal_port_mode_dig_all
                  0x00c056                  _ads1148_hal_port_init_chip0
                  0x00c068                  _ads1148_hal_port_deinit_chip0
                  0x00c084                  _ads1148_hal_port_init_chip1
                  0x00c096                  _ads1148_hal_port_deinit_chip1
                  0x00c0a6                  _ads1148_hal_write_read_byte
                  0x00c0f8                  _ads1148_hal_pwr_off
                  0x00c110                  _ads1148_hal_pwr_on
                  0x00c128                  _iic_pins_init
                  0x00c152                  _iic_pins_deinit
                  0x00c17c                  _iic_start
                  0x00c1be                  _iic_stop
                  0x00c1fa                  _iic_send_ack
                  0x00c290                  _iic_waite_ack
                  0x00c32c                  _iic_send_byte
                  0x00c3d8                  _iic_received_byte
                  0x00c46e                  _iic_received_byte_if_ack
                  0x00c484                  _my_uart1_send_poll
                  0x00c4a0                  _modbus_response_illgeal_function
                  0x00c4e6                  _getRegisterVal
                  0x00c69c                  _modbus_response_command
                  0x00c76a                  _modbus_response_process
                  0x00c7c4                  _ad421_chip0_pins_init
                  0x00c806                  _ad421_chip1_pins_init
                  0x00c842                  _ad421_chip0_pins_deinit
                  0x00c884                  _ad421_chip1_pins_deinit
                  0x00c8c0                  _ad421_chip0_set_idac_value
                  0x00c922                  _ad421_chip1_set_idac_value
                  0x00c980                  _ad421_chip0_set_idac_value_ex
                  0x00c9fe                  _ad421_chip1_set_idac_value_ex
                  0x00ca96                  _ad421_all_obj_init
                  0x00cacc                  _ad421_test
                  0x00caf6                  _RTCC_Initialize
                  0x00cb4c                  _RTCC_TimeReset
                  0x00cb62                  _RTCC_TimeGet
                  0x00cc14                  _RTCC_TimeSet
                  0x00cc98                  _RTCC_BCDTimeGet
                  0x00cd32                  _RTCC_BCDTimeSet
                  0x00cdd6                  _UART2_Initialize
                  0x00cdec                  _UART2_Read
                  0x00ce22                  _UART2_ReadBuffer
                  0x00ce56                  _UART2_Write
                  0x00ce8c                  _UART2_WriteBuffer
                  0x00cebe                  _UART2_TransferStatusGet
                  0x00cefa                  _UART2_Peek
                  0x00cf22                  _UART2_ReceiveBufferSizeGet
                  0x00cf50                  _UART2_TransmitBufferSizeGet
                  0x00cf80                  _UART2_ReceiveBufferIsEmpty
                  0x00cf98                  _UART2_TransmitBufferIsFull
                  0x00cfb0                  _UART2_StatusGet
                  0x00cfb8                  _uart2_send_byte
                  0x00cfd0                  _uart2_send_str
                  0x00cfea                  _uart2_send_len
                  0x00d00c                  _UART1_Initialize
                  0x00d022                  _UART1_Read
                  0x00d058                  _UART1_ReadBuffer
                  0x00d08c                  _UART1_Write
                  0x00d0c2                  _UART1_WriteBuffer
                  0x00d0f4                  _UART1_TransferStatusGet
                  0x00d130                  _UART1_Peek
                  0x00d158                  _UART1_ReceiveBufferSizeGet
                  0x00d186                  _UART1_TransmitBufferSizeGet
                  0x00d1b6                  _UART1_ReceiveBufferIsEmpty
                  0x00d1ce                  _UART1_TransmitBufferIsFull
                  0x00d1e6                  _UART1_StatusGet
                  0x00d1ee                  _uart1_send_byte
                  0x00d206                  _uart1_send_str
                  0x00d220                  _uart1_send_len
                  0x00d242                  _at24c02_vdd_on
                  0x00d254                  _at24c02_vdd_off
                  0x00d264                  _at24c02_set_slave_addr
                  0x00d27e                  _at24c02_init
                  0x00d2b8                  _at24c02_init_all_chip
                  0x00d2d6                  _at24c02_read_byte
                  0x00d31c                  _at24c02_read_n_byte
                  0x00d394                  _at24c02_write_byte
                  0x00d3c6                  _at24c02_write_n_byte
                  0x00d444                  _m_flash_unlock_write
                  0x00d478                  _m_flash_read
                  0x00d4f8                  _m_flash_erase
                  0x00d522                  _m_flash_write
                  0x00d5b6                  _TMR1_CallBack
                  0x00d5c8                  _ticker_ms_set
                  0x00d5d6                  _ticker_ms_get
                  0x00d5e0                  _ticker_ms_delay
                  0x00d620                  _api_timer2_start
                  0x00d628                  _api_timer2_stop
                  0x00d63a                  _TMR2_CallBack
                  0x00d6bc                  _ticker_10ms_per_get
                  0x00d6c6                  _ticker_10ms_per_set
                  0x00d6d4                  _rtcc_interupt_disable
                  0x00d6de                  _rtcc_interupt_enable
                  0x00d804                  _TMR2_Initialize
                  0x00d81e                  _TMR2_Period16BitSet
                  0x00d830                  _TMR2_Period16BitGet
                  0x00d838                  _TMR2_Counter16BitSet
                  0x00d84a                  _TMR2_Counter16BitGet
                  0x00d858                  _TMR2_Start
                  0x00d880                  _TMR2_Stop
                  0x00d8a2                  _TMR2_GetElapsedThenClear
                  0x00d8ba                  _TMR2_SoftwareCounterGet
                  0x00d8c6                  _TMR2_SoftwareCounterClear
                  0x00d8d2                  _crc_sum
                  0x00d932                  _crc_verify
                  0x00d962                  _crc_append
                  0x00d990                  _PIN_MANAGER_Initialize
                  0x00da4a                  _TMR1_Initialize
                  0x00da64                  _TMR1_Period16BitSet
                  0x00da76                  _TMR1_Period16BitGet
                  0x00da7e                  _TMR1_Counter16BitSet
                  0x00da90                  _TMR1_Counter16BitGet
                  0x00da9e                  _TMR1_Start
                  0x00daae                  _TMR1_Stop
                  0x00daba                  _TMR1_GetElapsedThenClear
                  0x00dad2                  _TMR1_SoftwareCounterGet
                  0x00dade                  _TMR1_SoftwareCounterClear
                  0x00daea                  _ADC1_Initialize
                  0x00db10                  _ADC1_Start
                  0x00db18                  _ADC1_Stop
                  0x00db20                  _ADC1_ConversionResultBufferGet
                  0x00db52                  _ADC1_ConversionResultGet
                  0x00db5a                  _ADC1_IsConversionComplete
                  0x00db72                  _ADC1_ChannelSelect
                  0x00db7e                  _INTERRUPT_Initialize
                  0x00dbe8                  _get_key_value
                  0x00dc14                  _key_init
                  0x00dc42                  _delay_us
                  0x00dc6a                  _delay_ms
                  0x00dc8c                  _SYSTEM_Initialize
                  0x00dca4                  _OSCILLATOR_Initialize
                  0x00dcc0                  _flash_unlock_pm
                  0x00dcda                  _send_thread_main_event_key_down

External Symbols in Program Memory (by name):

                  0x00db72                  _ADC1_ChannelSelect
                  0x00db20                  _ADC1_ConversionResultBufferGet
                  0x00db52                  _ADC1_ConversionResultGet
                  0x00daea                  _ADC1_Initialize
                  0x00db5a                  _ADC1_IsConversionComplete
                  0x00db10                  _ADC1_Start
                  0x00db18                  _ADC1_Stop
                  0x001452                  _AT_CMD_AT
                  0x00145e                  _AT_CMD_ATI
                  0x00166a                  _AT_CMD_CEREG
                  0x00163a                  _AT_CMD_CEREG_R
                  0x001656                  _AT_CMD_CEREG_Rn
                  0x0014d8                  _AT_CMD_CFUN
                  0x0014a4                  _AT_CMD_CFUN_0
                  0x0014c6                  _AT_CMD_CFUN_R
                  0x0015c8                  _AT_CMD_CGATT
                  0x0015e8                  _AT_CMD_CGATT_R
                  0x00160c                  _AT_CMD_CGATT_R_COAP
                  0x001570                  _AT_CMD_CGDCONT
                  0x001592                  _AT_CMD_CGDCONT_COAP
                  0x0015b4                  _AT_CMD_CGDCONT_R
                  0x00170c                  _AT_CMD_CGMR
                  0x001754                  _AT_CMD_CGPADDR
                  0x001528                  _AT_CMD_CGSN
                  0x0014ea                  _AT_CMD_CMEE
                  0x001516                  _AT_CMD_CMI
                  0x00161c                  _AT_CMD_CSQ
                  0x00154e                  _AT_CMD_NBAND_R
                  0x00171e                  _AT_CMD_NCCID
                  0x0016ac                  _AT_CMD_NCDP
                  0x0016be                  _AT_CMD_NCDP_R
                  0x001740                  _AT_CMD_NMGR
                  0x001730                  _AT_CMD_NQMGR
                  0x001506                  _AT_CMD_NRB
                  0x0016e4                  _AT_CMD_NSOCL
                  0x00168c                  _AT_CMD_NSOCR
                  0x0016d0                  _AT_CMD_NSOCR_R
                  0x0016fc                  _AT_CMD_NSORF
                  0x00153c                  _AT_CMD_NUESTATS
                  0x001472                  _AT_CMD_QSECSWT
                  0x001488                  _AT_CMD_QSECSWT_S
                  0x00b174                  _HEX8
                  0x001bea                  _HexTable
                  0x00db7e                  _INTERRUPT_Initialize
                  0x001a8e                  _LCDDigitalIndexTable
                  0x001abb                  _LCDDigitalTable
                  0x001b28                  _LCDDigitalTableEx
                  0x001ae7                  _LCDDigitalTableIndexEx
                  0x00dca4                  _OSCILLATOR_Initialize
                  0x00d990                  _PIN_MANAGER_Initialize
                  0x00cc98                  _RTCC_BCDTimeGet
                  0x00cd32                  _RTCC_BCDTimeSet
                  0x00caf6                  _RTCC_Initialize
                  0x00cb62                  _RTCC_TimeGet
                  0x00cb4c                  _RTCC_TimeReset
                  0x00cc14                  _RTCC_TimeSet
                  0x00dc8c                  _SYSTEM_Initialize
                  0x00d5b6                  _TMR1_CallBack
                  0x00da90                  _TMR1_Counter16BitGet
                  0x00da7e                  _TMR1_Counter16BitSet
                  0x00daba                  _TMR1_GetElapsedThenClear
                  0x00da4a                  _TMR1_Initialize
                  0x00da76                  _TMR1_Period16BitGet
                  0x00da64                  _TMR1_Period16BitSet
                  0x00dade                  _TMR1_SoftwareCounterClear
                  0x00dad2                  _TMR1_SoftwareCounterGet
                  0x00da9e                  _TMR1_Start
                  0x00daae                  _TMR1_Stop
                  0x00d63a                  _TMR2_CallBack
                  0x00d84a                  _TMR2_Counter16BitGet
                  0x00d838                  _TMR2_Counter16BitSet
                  0x00d8a2                  _TMR2_GetElapsedThenClear
                  0x00d804                  _TMR2_Initialize
                  0x00d830                  _TMR2_Period16BitGet
                  0x00d81e                  _TMR2_Period16BitSet
                  0x00d8c6                  _TMR2_SoftwareCounterClear
                  0x00d8ba                  _TMR2_SoftwareCounterGet
                  0x00d858                  _TMR2_Start
                  0x00d880                  _TMR2_Stop
                  0x00d00c                  _UART1_Initialize
                  0x00d130                  _UART1_Peek
                  0x00d022                  _UART1_Read
                  0x00d058                  _UART1_ReadBuffer
                  0x00d1b6                  _UART1_ReceiveBufferIsEmpty
                  0x00d158                  _UART1_ReceiveBufferSizeGet
                  0x00d1e6                  _UART1_StatusGet
                  0x00d0f4                  _UART1_TransferStatusGet
                  0x00d1ce                  _UART1_TransmitBufferIsFull
                  0x00d186                  _UART1_TransmitBufferSizeGet
                  0x00d08c                  _UART1_Write
                  0x00d0c2                  _UART1_WriteBuffer
                  0x00cdd6                  _UART2_Initialize
                  0x00cefa                  _UART2_Peek
                  0x00cdec                  _UART2_Read
                  0x00ce22                  _UART2_ReadBuffer
                  0x00cf80                  _UART2_ReceiveBufferIsEmpty
                  0x00cf22                  _UART2_ReceiveBufferSizeGet
                  0x00cfb0                  _UART2_StatusGet
                  0x00cebe                  _UART2_TransferStatusGet
                  0x00cf98                  _UART2_TransmitBufferIsFull
                  0x00cf50                  _UART2_TransmitBufferSizeGet
                  0x00ce56                  _UART2_Write
                  0x00ce8c                  _UART2_WriteBuffer
                  0x0004e6                  __ADC1Interrupt
                  0x0003fe                  __AddressError
                  0x00050e                  __CNInterrupt
                  0x000590                  __DefaultInterrupt
                  0x000502                  __Interrupt100
                  0x000406                  __MathError
                  0x0003ec                  __OscillatorFail
                  0x000572                  __RTCCInterrupt
                  0x0003f4                  __StackError
                  0x0003be                  __T1Interrupt
                  0x000390                  __T2Interrupt
                  0x0004d0                  __U1ErrInterrupt
                  0x000484                  __U1RXInterrupt
                  0x00047a                  __U1TXInterrupt
                  0x000464                  __U2ErrInterrupt
                  0x000418                  __U2RXInterrupt
                  0x00040e                  __U2TXInterrupt
                  0x000598                  ___addsf3
                  0x000652                  ___divsf3
                  0x0006d6                  ___divsi3
                  0x0027c0                  ___down_adj_lcd_on_tm
                  0x0027b0                  ___down_adj_modbus_id
                  0x0027d0                  ___down_adj_rf_send_period
                  0x00264a                  ___down_base_zero_adj
                  0x0026ca                  ___down_density
                  0x0026de                  ___down_dpr_calib
                  0x0026f2                  ___down_ex0_pr_calib
                  0x002706                  ___down_ex1_pr_calib
                  0x00272e                  ___down_home_adj
                  0x00277a                  ___down_home_adj_test
                  0x0027a0                  ___down_ilp_adjust_value_adj
                  0x0027fc                  ___down_poly_coefic_adj_mod
                  0x0026ae                  ___down_pose_size
                  0x00271a                  ___down_pr_calib
                  0x002562                  ___enter_menu_bar_scale
                  0x0022de                  ___enter_menu_calib_dpr_2nd
                  0x002342                  ___enter_menu_calib_epr0_2nd
                  0x00236a                  ___enter_menu_calib_epr1_2nd
                  0x00231a                  ___enter_menu_calib_pr_2nd
                  0x00218e                  ___enter_menu_calib_press
                  0x00211e                  ___enter_menu_calib_press_diff
                  0x0021fe                  ___enter_menu_ex0_pr_calib
                  0x00226e                  ___enter_menu_ex1_pr_calib
                  0x002512                  ___enter_menu_ilp_adjust
                  0x0024a6                  ___enter_menu_ilp_scale
                  0x001f94                  ___enter_menu_password
                  0x0023b4                  ___enter_menu_poly_coeffic
                  0x0023e0                  ___enter_menu_poly_coeffic_mod
                  0x0020e8                  ___enter_menu_set_base_zero
                  0x0025da                  ___enter_menu_set_bl_on_tm
                  0x002090                  ___enter_menu_set_d
                  0x00204c                  ___enter_menu_set_density
                  0x002594                  ___enter_menu_set_ext_show_mode
                  0x0020bc                  ___enter_menu_set_h
                  0x0025f0                  ___enter_menu_set_lcd_on_tm
                  0x002606                  ___enter_menu_set_modbus_addr
                  0x002020                  ___enter_menu_set_pdc
                  0x001fa4                  ___enter_menu_set_pdc_chang_psd
                  0x002070                  ___enter_menu_set_pose_size
                  0x0025c2                  ___enter_menu_set_rf_send_period
                  0x002388                  ___enter_menu_set_temp_ex0
                  0x00239e                  ___enter_menu_set_temp_ex1
                  0x0025aa                  ___enter_menu_set_wakeup_period
                  0x00261c                  ___enter_menu_show_ver
                  0x002418                  ___enter_menu_warn_type
                  0x002448                  ___enter_menu_warn_value
                  0x00257e                  ___enter_menu_work_mode
                  0x001cce                  ___enter_root_enable
                  0x0006f4                  ___eqsf2
                  0x002628                  ___exit_menu_to_home_unsave
                  0x001c08                  ___exp_10
                  0x0006fc                  ___fixsfsi
                  0x00073e                  ___fixunssfsi
                  0x00090a                  ___floatdisf
                  0x000774                  ___floatsisf
                  0x00092a                  ___floatundisf
                  0x00077a                  ___floatunsisf
                  0x0006f8                  ___gesf2
                  0x0006f8                  ___gtsf2
                  0x00625c                  ___int32_2_mflot32
                  0x006184                  ___int32_2_mflot32_02
                  0x0006f4                  ___lesf2
                  0x0006f4                  ___ltsf2
                  0x006302                  ___mflot32_2_int32
                  0x000828                  ___modsi3
                  0x000846                  ___mulsf3
                  0x00077e                  ___nesf2
                  0x003e48                  ___set_long_bar_level_scale
                  0x003e14                  ___set_long_base_zero
                  0x003eb6                  ___set_long_bl_on_tm
                  0x003dda                  ___set_long_density
                  0x003e74                  ___set_long_ext_show_mode
                  0x003ecc                  ___set_long_lcd_on_tm
                  0x003ee2                  ___set_long_modbus_id
                  0x003eaa                  ___set_long_poly_coefic_adj_mod
                  0x003e9a                  ___set_long_rf_send_period
                  0x003e8a                  ___set_long_wake_up_period
                  0x003e60                  ___set_long_work_mode
                  0x003c20                  ___set_short_calib_dpr_2nd
                  0x003cb4                  ___set_short_calib_epr0_2nd
                  0x003cd8                  ___set_short_calib_epr1_2nd
                  0x003c90                  ___set_short_calib_pr_2nd
                  0x0033c6                  ___set_short_density
                  0x0034b6                  ___set_short_diff_calib
                  0x003a96                  ___set_short_ex0_etemp_calib
                  0x0037fe                  ___set_short_ex0_pr_calib
                  0x003ae0                  ___set_short_ex1_etemp_calib
                  0x00394a                  ___set_short_ex1_pr_calib
                  0x003d7c                  ___set_short_ilp_adjust_value
                  0x003cfc                  ___set_short_ilp_scale
                  0x00338a                  ___set_short_pdc
                  0x003b2a                  ___set_short_poly_coefic
                  0x003424                  ___set_short_pose_size
                  0x00361c                  ___set_short_pr_calib
                  0x003b6a                  ___set_short_warn_type
                  0x003bae                  ___set_short_warn_value
                  0x000596                  ___subsf3
                  0x001c3c                  ___sys_data_save_write_flash
                  0x0008ae                  ___udivsi3
                  0x0008ce                  ___umodsi3
                  0x002ce8                  ___up_adj_bar_level_scale
                  0x002ddc                  ___up_adj_bl_on_tm
                  0x002d3c                  ___up_adj_ext_show_mode
                  0x002e2a                  ___up_adj_lcd_on_tm
                  0x002e3a                  ___up_adj_modbus_id
                  0x0029fe                  ___up_adj_pcd
                  0x002db8                  ___up_adj_rf_send_period
                  0x002d5c                  ___up_adj_wakeup_period
                  0x002d1c                  ___up_adj_work_mode
                  0x002aca                  ___up_base_zero_adj
                  0x002a5e                  ___up_density_adj
                  0x002a1a                  ___up_density_adj_sel_matter
                  0x002b2e                  ___up_diff_calib_adj
                  0x002cca                  ___up_epr_ilp_scale_adj
                  0x002cbc                  ___up_etemp_calib_adj
                  0x002b9e                  ___up_ex0_pr_calib_adj
                  0x002bd6                  ___up_ex1_pr_calib_adj
                  0x0029b8                  ___up_home_adj
                  0x002cd8                  ___up_ilp_adjust_value_adj
                  0x002c0e                  ___up_poly_coefic_adj
                  0x002c1c                  ___up_poly_coefic_adj_mod
                  0x002a80                  ___up_pose_size_adj
                  0x002b66                  ___up_pr_calib_adj
                  0x002a0c                  ___up_psw_adj
                  0x002c8c                  ___up_warn_type_adj
                  0x002cae                  ___up_warn_value_adj
                  0x00614a                  ___x_arrange_str
                  0x000252                  __data_init
                  0x000252                  __data_init_da
                  0x000808                  __fPropagateNaN
                  0x00081a                  __fbopExit
                  0x000822                  __fbopReturnNaN
                  0x0008d4                  __fcompare
                  0x000782                  __fpack
                  0x0007ce                  __funpack
                  0x0007f8                  __funpack2
                  0x00023c                  __psv_init
                  0x000200                  __resetPRI
                  0x008aca                  _abs_diff
                  0x00ca96                  _ad421_all_obj_init
                  0x00c842                  _ad421_chip0_pins_deinit
                  0x00c7c4                  _ad421_chip0_pins_init
                  0x00c8c0                  _ad421_chip0_set_idac_value
                  0x00c980                  _ad421_chip0_set_idac_value_ex
                  0x00c884                  _ad421_chip1_pins_deinit
                  0x00c806                  _ad421_chip1_pins_init
                  0x00c922                  _ad421_chip1_set_idac_value
                  0x00c9fe                  _ad421_chip1_set_idac_value_ex
                  0x00cacc                  _ad421_test
                  0x001bfc                  _ads1148DefaultBuf
                  0x00a0c0                  _ads1148_get_all_register
                  0x00beca                  _ads1148_hal_cs_0_mod_in
                  0x00beb2                  _ads1148_hal_cs_0_mod_out
                  0x00bedc                  _ads1148_hal_cs_0_set_hight
                  0x00bee8                  _ads1148_hal_cs_0_set_low
                  0x00bfc4                  _ads1148_hal_cs_1_mod_in
                  0x00bf8a                  _ads1148_hal_cs_1_mod_out
                  0x00bfa2                  _ads1148_hal_cs_1_set_hight
                  0x00bfae                  _ads1148_hal_cs_1_set_low
                  0x00be06                  _ads1148_hal_din_get
                  0x00bdf4                  _ads1148_hal_din_mod_in
                  0x00bdca                  _ads1148_hal_din_mod_out
                  0x00bddc                  _ads1148_hal_din_set_hight
                  0x00bde8                  _ads1148_hal_din_set_low
                  0x00be46                  _ads1148_hal_dout_mod_in
                  0x00be16                  _ads1148_hal_dout_mod_out
                  0x00be2e                  _ads1148_hal_dout_set_hight
                  0x00be3a                  _ads1148_hal_dout_set_low
                  0x00bea0                  _ads1148_hal_drdy_0_get
                  0x00be8a                  _ads1148_hal_drdy_0_mod_in
                  0x00be58                  _ads1148_hal_drdy_0_mod_out
                  0x00be6e                  _ads1148_hal_drdy_0_set_hight
                  0x00be7c                  _ads1148_hal_drdy_0_set_low
                  0x00bf7c                  _ads1148_hal_drdy_1_get
                  0x00bf6a                  _ads1148_hal_drdy_1_mod_in
                  0x00bf40                  _ads1148_hal_drdy_1_mod_out
                  0x00bf52                  _ads1148_hal_drdy_1_set_hight
                  0x00bf5e                  _ads1148_hal_drdy_1_set_low
                  0x00c068                  _ads1148_hal_port_deinit_chip0
                  0x00c096                  _ads1148_hal_port_deinit_chip1
                  0x00c056                  _ads1148_hal_port_init_chip0
                  0x00c084                  _ads1148_hal_port_init_chip1
                  0x00c018                  _ads1148_hal_port_mode_dig_all
                  0x00c0f8                  _ads1148_hal_pwr_off
                  0x00c110                  _ads1148_hal_pwr_on
                  0x00bdb8                  _ads1148_hal_sck_mod_in
                  0x00bd88                  _ads1148_hal_sck_mod_out
                  0x00bda0                  _ads1148_hal_sck_set_hight
                  0x00bdac                  _ads1148_hal_sck_set_low
                  0x00bf2e                  _ads1148_hal_start_0_mod_in
                  0x00befe                  _ads1148_hal_start_0_mod_out
                  0x00bf16                  _ads1148_hal_start_0_set_hight
                  0x00bf22                  _ads1148_hal_start_0_set_low
                  0x00c006                  _ads1148_hal_start_1_mod_in
                  0x00bfd6                  _ads1148_hal_start_1_mod_out
                  0x00bfee                  _ads1148_hal_start_1_set_hight
                  0x00bffa                  _ads1148_hal_start_1_set_low
                  0x00c0a6                  _ads1148_hal_write_read_byte
                  0x00a3d2                  _ads1148_init_all_obj
                  0x00a34c                  _ads1148_init_chip_regs
                  0x00a3dc                  _ads1148_init_device
                  0x00a24e                  _ads1148_init_obj_0
                  0x00a28e                  _ads1148_init_obj_1
                  0x00a41a                  _ads1148_post_sleep
                  0x00a3fe                  _ads1148_pre_sleep
                  0x009ade                  _ads1148_read_data
                  0x009bb2                  _ads1148_read_register
                  0x009aae                  _ads1148_send_cmd
                  0x009e80                  _ads1148_set_ani_pga
                  0x009cc6                  _ads1148_set_bcs
                  0x009c54                  _ads1148_set_channle_normal
                  0x00a22a                  _ads1148_set_config_ex
                  0x009e24                  _ads1148_set_data_rate
                  0x009f3c                  _ads1148_set_drdy_mode
                  0x00a1bc                  _ads1148_set_idac0_ex
                  0x00a052                  _ads1148_set_idac12_pins
                  0x00a1f4                  _ads1148_set_idac1_ex
                  0x009f9a                  _ads1148_set_idac1_pins
                  0x009ff6                  _ads1148_set_idac2_pins
                  0x009ee0                  _ads1148_set_imag_idac
                  0x00a0d6                  _ads1148_set_mux0_ex
                  0x00a132                  _ads1148_set_mux1_ex
                  0x009dbe                  _ads1148_set_muxcal
                  0x00a304                  _ads1148_set_ready
                  0x00a2ce                  _ads1148_set_sync
                  0x00a182                  _ads1148_set_sys0_ex
                  0x009d22                  _ads1148_set_vbias
                  0x00a122                  _ads1148_set_vbias_ex
                  0x009d3a                  _ads1148_set_vref
                  0x009c2a                  _ads1148_slef_calibration
                  0x00a432                  _ads1148_start_convert
                  0x00a440                  _ads1148_stop_convert
                  0x00a49e                  _ads1148_test
                  0x00a44e                  _ads1148_waite_convert
                  0x009b40                  _ads1148_write_register
                  0x009856                  _ain_bat_config
                  0x009844                  _ain_ref_config
                  0x00bb0a                  _ain_solor_config
                  0x00bb40                  _all_bj_disable
                  0x00bb1c                  _all_bj_init
                  0x00ba26                  _all_status_pins_mod_in
                  0x00ba5c                  _all_status_pins_mod_out
                  0x00d620                  _api_timer2_start
                  0x00d628                  _api_timer2_stop
                  0x00d27e                  _at24c02_init
                  0x00d2b8                  _at24c02_init_all_chip
                  0x00d2d6                  _at24c02_read_byte
                  0x00d31c                  _at24c02_read_n_byte
                  0x00d264                  _at24c02_set_slave_addr
                  0x00d254                  _at24c02_vdd_off
                  0x00d242                  _at24c02_vdd_on
                  0x00d394                  _at24c02_write_byte
                  0x00d3c6                  _at24c02_write_n_byte
                  0x00175a                  _auchCRCHi
                  0x00185a                  _auchCRCLo
                  0x00b9ce                  _back_night_off
                  0x00b9a2                  _back_night_on
                  0x00bb8e                  _bj_1_off
                  0x00bb5e                  _bj_1_on
                  0x00bb9a                  _bj_2_off
                  0x00bb6a                  _bj_2_on
                  0x00bba6                  _bj_3_off
                  0x00bb76                  _bj_3_on
                  0x00bbb2                  _bj_4_off
                  0x00bb82                  _bj_4_on
                  0x00bbd2                  _bj_all_off
                  0x00bbbe                  _bj_all_on
                  0x00bbe6                  _bj_output
                  0x0086b6                  _cal_battery_voltage
                  0x00822c                  _cal_diff_hight_level
                  0x008144                  _cal_diff_hight_to_vol_h
                  0x0082da                  _cal_diff_hight_to_vol_v
                  0x0084b0                  _cal_diff_p_to_h
                  0x0084f8                  _cal_diff_vol_to_t
                  0x007c2e                  _cal_smoothing_filter
                  0x00885a                  _calc_dpr_iloop_out_put
                  0x0088da                  _calc_dpr_iloop_out_put_ex
                  0x008992                  _calc_pr_iloop_out_put
                  0x008a12                  _calc_pr_iloop_out_put_ex
                  0x00859a                  _calc_res_2_temp
                  0x0086bc                  _calc_warning_pr_dpr
                  0x008534                  _calculate_and_compensate
                  0x008040                  _calib_data_obj_init
                  0x007ad8                  _calib_data_put_piont_tab
                  0x007b34                  _calib_data_set_default
                  0x00bada                  _check_solor_set_hight
                  0x00baf2                  _check_solor_set_low
                  0x00d962                  _crc_append
                  0x00d8d2                  _crc_sum
                  0x00d932                  _crc_verify
                  0x0080c6                  _data_init_all
                  0x007952                  _data_sys_cal_v1
                  0x0079c4                  _data_sys_cal_v2
                  0x00793a                  _data_sys_get_density
                  0x007a08                  _data_sys_init
                  0x007a80                  _data_sys_save
                  0x0012f4                  _defultSystemData
                  0x00dc6a                  _delay_ms
                  0x00dc42                  _delay_us
                  0x00b76a                  _event_call_disp
                  0x00b730                  _event_enter_sleep
                  0x00b6ac                  _event_iloop_out_put
                  0x00b606                  _event_iloop_out_put_adj
                  0x00b7a2                  _event_rtc_bl_off
                  0x00b7ea                  _event_rtc_lcd_off
                  0x00b83c                  _event_rtc_modify_poly_coeffic
                  0x00b7d0                  _event_rtc_no_operation_tm_out
                  0x00b532                  _event_sample_real_time_mode
                  0x00b582                  _event_sample_sleep_wake_mode
                  0x00dcc0                  _flash_unlock_pm
                  0x00c4e6                  _getRegisterVal
                  0x00b9fa                  _get_ex_function_status
                  0x00dbe8                  _get_key_value
                  0x00bd00                  _gps_en_pins_config
                  0x00bd18                  _gps_module_disable
                  0x00bd06                  _gps_module_enable
                  0x00bd2a                  _gps_rst_enable
                  0x00bd24                  _gps_rst_pins_config
                  0x00bd42                  _gps_rst_release
                  0x00bca0                  _gsm_en_pins_config
                  0x00bcbe                  _gsm_module_disable
                  0x00bca6                  _gsm_module_enable
                  0x00bcd6                  _gsm_rst_enable
                  0x00bcd0                  _gsm_rst_pins_config
                  0x00bcee                  _gsm_rst_release
                  0x000988                  _hKcy
                  0x000b1c                  _hKel
                  0x00c152                  _iic_pins_deinit
                  0x00c128                  _iic_pins_init
                  0x00c3d8                  _iic_received_byte
                  0x00c46e                  _iic_received_byte_if_ack
                  0x00c1fa                  _iic_send_ack
                  0x00c32c                  _iic_send_byte
                  0x00c17c                  _iic_start
                  0x00c1be                  _iic_stop
                  0x00c290                  _iic_waite_ack
                  0x00b46a                  _int16_2_d
                  0x001d3a                  _key_adj_value_fixed
                  0x001da0                  _key_adj_value_fixed_t8
                  0x001e38                  _key_adj_value_float
                  0x00dc14                  _key_init
                  0x00430e                  _key_process
                  0x002880                  _key_process_down
                  0x004190                  _key_process_set
                  0x0030d0                  _key_process_set_all_long
                  0x003ef8                  _key_process_set_long
                  0x0030e6                  _key_process_set_up_long_root
                  0x003280                  _key_process_set_up_long_user
                  0x002e4a                  _key_process_up
                  0x001eaa                  _key_process_up_down_variable_speed_ex
                  0x001cfa                  _key_shift_loc
                  0x001c8e                  _key_waite_release
                  0x00b950                  _kz_qy_vcc_disable
                  0x00b938                  _kz_qy_vcc_enable
                  0x00b988                  _kz_vadd_off
                  0x00b962                  _kz_vadd_on
                  0x005da0                  _lcd_clear_all_dp
                  0x005d16                  _lcd_clear_all_dp_sm
                  0x0060b4                  _lcd_config
                  0x006092                  _lcd_disp_all
                  0x004a2c                  _lcd_disp_battary
                  0x0049a6                  _lcd_disp_battary_bar
                  0x004a64                  _lcd_disp_battary_off
                  0x004c04                  _lcd_disp_chr_loc_0
                  0x005336                  _lcd_disp_chr_loc_0_ex
                  0x005a8c                  _lcd_disp_chr_loc_0_sm
                  0x004cd4                  _lcd_disp_chr_loc_1
                  0x0055a8                  _lcd_disp_chr_loc_1_ex
                  0x005b34                  _lcd_disp_chr_loc_1_sm
                  0x004d98                  _lcd_disp_chr_loc_2
                  0x00581a                  _lcd_disp_chr_loc_2_ex
                  0x005bdc                  _lcd_disp_chr_loc_2_sm
                  0x004e5c                  _lcd_disp_chr_loc_3
                  0x004f04                  _lcd_disp_chr_loc_4
                  0x004fd4                  _lcd_disp_chr_loc_5
                  0x005098                  _lcd_disp_chr_loc_6
                  0x00515c                  _lcd_disp_chr_loc_7
                  0x004cb8                  _lcd_disp_dp_loc_0
                  0x005c84                  _lcd_disp_dp_loc_0_sm
                  0x004d7c                  _lcd_disp_dp_loc_1
                  0x005ca0                  _lcd_disp_dp_loc_1_sm
                  0x004e40                  _lcd_disp_dp_loc_2
                  0x004fb8                  _lcd_disp_dp_loc_4
                  0x00507c                  _lcd_disp_dp_loc_5
                  0x005140                  _lcd_disp_dp_loc_6
                  0x005cbc                  _lcd_disp_dp_loc_sign_sm
                  0x005cd8                  _lcd_disp_dp_loc_sm_temperature
                  0x005d24                  _lcd_disp_get_code
                  0x005d62                  _lcd_disp_get_code_ex
                  0x004946                  _lcd_disp_level
                  0x00444c                  _lcd_disp_level_bar
                  0x00498a                  _lcd_disp_level_off
                  0x004bc0                  _lcd_disp_light
                  0x004b74                  _lcd_disp_light_bar
                  0x004bf2                  _lcd_disp_light_off
                  0x005204                  _lcd_disp_logo
                  0x005ffc                  _lcd_disp_refresh
                  0x004b08                  _lcd_disp_rf
                  0x004a7e                  _lcd_disp_rf_bar
                  0x004b5a                  _lcd_disp_rf_off
                  0x005234                  _lcd_disp_unit_1st_m
                  0x00525c                  _lcd_disp_unit_1st_m3
                  0x0052a6                  _lcd_disp_unit_2nd_m
                  0x0052d4                  _lcd_disp_unit_2nd_m3
                  0x005308                  _lcd_disp_unit_mpa
                  0x00520c                  _lcd_disp_unit_t
                  0x00528a                  _lcd_disp_unit_temperature
                  0x006136                  _lcd_init
                  0x005e0e                  _lcd_show_chr
                  0x005eb0                  _lcd_show_chr_ex
                  0x005f42                  _lcd_show_chr_lc
                  0x005e7a                  _lcd_show_chr_sm
                  0x005dbe                  _lcd_show_dp
                  0x005cf4                  _lcd_show_dp_sm
                  0x005fce                  _lcd_show_string
                  0x005f14                  _lcd_show_string_ex
                  0x005f72                  _lcd_show_string_l0
                  0x005fa0                  _lcd_show_string_l1
                  0x005ee6                  _lcd_show_string_sm
                  0x00d4f8                  _m_flash_erase
                  0x00d478                  _m_flash_read
                  0x00d444                  _m_flash_unlock_write
                  0x00d522                  _m_flash_write
                  0x00b3ee                  _m_int16_2_str_3
                  0x00b344                  _m_int16_2_str_4
                  0x00b30e                  _m_int8_2_hex
                  0x00b0ae                  _m_int_2_str
                  0x007cb4                  _m_interp1_cal_p_s
                  0x007e9c                  _m_interp1_cal_p_t
                  0x007fbe                  _m_interp1_float_fast
                  0x00b056                  _m_math_pow
                  0x00ae90                  _m_mem_cpy
                  0x00ae66                  _m_mem_cpy_len
                  0x00ae3c                  _m_mem_set
                  0x00b1a8                  _m_str_b2h
                  0x00aef0                  _m_str_cmp
                  0x00af30                  _m_str_cmp_len
                  0x00aeba                  _m_str_cpy
                  0x00b204                  _m_str_h2b
                  0x00b132                  _m_str_head_hide
                  0x00af76                  _m_str_match
                  0x00afe4                  _m_str_match_ex
                  0x00b4c4                  _m_system_init
                  0x00b870                  _main
                  0x00c69c                  _modbus_response_command
                  0x00c4a0                  _modbus_response_illgeal_function
                  0x00c76a                  _modbus_response_process
                  0x00ac42                  _my_scanf_int16
                  0x00c484                  _my_uart1_send_poll
                  0x00a56a                  _nb_at_cmd_ex
                  0x00a4f8                  _nb_at_cmd_recbuf_init
                  0x00a508                  _nb_at_cmd_waite_resp
                  0x00a828                  _nb_coap_enter_psm
                  0x00a706                  _nb_coap_ncbp
                  0x00a83e                  _nb_coap_psm_send_ready
                  0x00a692                  _nb_extract_cgsn
                  0x00a666                  _nb_extract_cimi
                  0x00a6c0                  _nb_extract_nccid
                  0x00a776                  _nb_get_csq
                  0x00a812                  _nb_module_cfun_off
                  0x00a6f0                  _nb_module_nbr
                  0x00a5ee                  _nb_power_on_process_waite_ok
                  0x00addc                  _nb_process
                  0x00a4ee                  _nb_process_disable_sleep_in_lwp
                  0x00ad34                  _nb_received_coap
                  0x00add0                  _nb_received_process
                  0x00ab8e                  _nb_send_coap
                  0x00aae0                  _nb_send_packet_load
                  0x00aaec                  _nb_udp_send_load_coap
                  0x0042c0                  _no_operation_save_exit
                  0x00acea                  _np_received_extract_coap
                  0x00bd54                  _pre_system_sleep
                  0x00bc58                  _pre_system_sleep_deinit_all_pins
                  0x000cb0                  _pt100ResTempTable
                  0x00baaa                  _rs_485_set_rx
                  0x00bac2                  _rs_485_set_tx
                  0x00d6d4                  _rtcc_interupt_disable
                  0x00d6de                  _rtcc_interupt_enable
                  0x00bc46                  _run_status_init
                  0x008d08                  _samlpe_chip0_ch_diff_pr_bridge
                  0x009272                  _samlpe_chip0_ch_diff_pr_ref0
                  0x008d60                  _samlpe_chip0_ch_diff_pr_signal
                  0x009140                  _samlpe_chip0_ch_pr_bridge
                  0x0091a8                  _samlpe_chip0_ch_pr_signal
                  0x0091f8                  _samlpe_chip0_ch_temperature_in
                  0x00943c                  _samlpe_chip1_ch_ex0_temperature_A
                  0x0094a8                  _samlpe_chip1_ch_ex0_temperature_B
                  0x0096a2                  _samlpe_chip1_ch_ex1_temperature_A
                  0x00970e                  _samlpe_chip1_ch_ex1_temperature_B
                  0x00937a                  _samlpe_chip1_ch_expr0_signal
                  0x0095e0                  _samlpe_chip1_ch_expr1_signal
                  0x008ae6                  _samlpe_get_adc_average_value_ex
                  0x009922                  _samlpe_in_soc_battery
                  0x0099e8                  _samlpe_in_soc_ref
                  0x008be6                  _samlpe_read_adc
                  0x008c82                  _samlpe_read_adc_ex
                  0x008db0                  _sample_calc_calib_dpr_2nd
                  0x008e4c                  _sample_calc_calib_x_2nd
                  0x009098                  _sample_calc_diff_press
                  0x00902a                  _sample_calc_diff_press_fi_full
                  0x008e68                  _sample_calc_diff_press_fliter
                  0x008ef0                  _sample_calc_diff_press_static_err
                  0x0092b4                  _sample_calc_press
                  0x0093e6                  _sample_calc_press_ex0
                  0x00964c                  _sample_calc_press_ex1
                  0x0094f6                  _sample_calc_temperature_ex0
                  0x00975c                  _sample_calc_temperature_ex1
                  0x009306                  _sample_calc_temperature_in
                  0x009868                  _sample_in_soc_solar
                  0x0099ee                  _sample_process
                  0x00dcda                  _send_thread_main_event_key_down
                  0x00b9e8                  _status_ma_mode_in
                  0x00b4cc                  _thread_main_pre
                  0x00d6bc                  _ticker_10ms_per_get
                  0x00d6c6                  _ticker_10ms_per_set
                  0x00d5e0                  _ticker_ms_delay
                  0x00d5d6                  _ticker_ms_get
                  0x00d5c8                  _ticker_ms_set
                  0x00d1ee                  _uart1_send_byte
                  0x00d220                  _uart1_send_len
                  0x00d206                  _uart1_send_str
                  0x00cfb8                  _uart2_send_byte
                  0x00cfea                  _uart2_send_len
                  0x00cfd0                  _uart2_send_str
                  0x00655e                  _ui_disp_adj_xfixed
                  0x006638                  _ui_disp_adj_xfixed_pt
                  0x006734                  _ui_disp_adj_xfixed_pt_dp
                  0x006696                  _ui_disp_adj_xfixed_pt_t8
                  0x0065b2                  _ui_disp_adj_xfixed_static
                  0x0065f2                  _ui_disp_adj_xfixed_static_3
                  0x006402                  _ui_disp_adj_xfloat_pt
                  0x006372                  _ui_disp_all_off
                  0x006366                  _ui_disp_all_on
                  0x0063d4                  _ui_disp_clear_num_dp
                  0x006b50                  _ui_disp_ext_loop
                  0x006b26                  _ui_disp_home_sm_ex
                  0x006a88                  _ui_disp_home_sm_tmp_in
                  0x0076ac                  _ui_disp_menu
                  0x007424                  _ui_disp_menu_bar_full_adj
                  0x00760c                  _ui_disp_menu_bl_on_tm
                  0x0070b0                  _ui_disp_menu_bzero_adj
                  0x0070e8                  _ui_disp_menu_calib_adj_x
                  0x007522                  _ui_disp_menu_calib_dpr_2nd
                  0x007292                  _ui_disp_menu_calib_ex0_temp_adj
                  0x007308                  _ui_disp_menu_calib_ex1_temp_adj
                  0x007556                  _ui_disp_menu_calib_x_2nd
                  0x007070                  _ui_disp_menu_d_adj
                  0x006fec                  _ui_disp_menu_density_adj
                  0x006fac                  _ui_disp_menu_density_sel_custom
                  0x006f50                  _ui_disp_menu_density_sel_matter
                  0x00737e                  _ui_disp_menu_epr_ilp_scale_adj
                  0x007468                  _ui_disp_menu_ext_show_mode
                  0x007042                  _ui_disp_menu_h_adj
                  0x006da8                  _ui_disp_menu_home
                  0x006a7c                  _ui_disp_menu_home_test
                  0x0073da                  _ui_disp_menu_ilp_adj
                  0x007660                  _ui_disp_menu_lcd_on_tm
                  0x007678                  _ui_disp_menu_modbus_id
                  0x00699e                  _ui_disp_menu_pdc
                  0x00716e                  _ui_disp_menu_poly_c_adj
                  0x0074de                  _ui_disp_menu_poly_coefic_adj_mod
                  0x007008                  _ui_disp_menu_pos_adj
                  0x00708a                  _ui_disp_menu_pose_size
                  0x006a64                  _ui_disp_menu_psw_adj
                  0x0074ba                  _ui_disp_menu_rf_send_period
                  0x0069e2                  _ui_disp_menu_set_pdc
                  0x007690                  _ui_disp_menu_ver
                  0x007496                  _ui_disp_menu_wake_up_period
                  0x0071a8                  _ui_disp_menu_warn_t_adj
                  0x00721c                  _ui_disp_menu_warn_v_adj
                  0x00743a                  _ui_disp_menu_work_mode_adj
                  0x0063ce                  _ui_disp_rtc_mm_ss
                  0x00637e                  _ui_disp_start_cs600
                  0x006908                  _ui_disp_xfloat_pt
                  0x00622a                  _ui_disp_xfloat_pt_02
                  0x006872                  _ui_disp_xfloat_pt_ex
                  0x00679c                  _ui_disp_xfloat_pt_twinkle
                  0x00bc7a                  _unused_pins_deinit

Memory Configuration

Name             Origin             Length             Attributes
data             0x000800           0x002000           a !xr
reset            0x000000           0x000004  
ivt              0x000004           0x0000fc  
_reserved        0x000100           0x000004  
aivt             0x000104           0x0000fc  
program          0x000200           0x0155f8           xr
CONFIG4          0x0157f8           0x000002  
CONFIG3          0x0157fa           0x000002  
CONFIG2          0x0157fc           0x000002  
CONFIG1          0x0157fe           0x000002  
*default*        0x000000           0xffffffff  

Linker script and memory map

LOAD build/default/production/mcc_generated_files/rtcc.o
LOAD build/default/production/mcc_generated_files/pin_manager.o
LOAD build/default/production/mcc_generated_files/interrupt_manager.o
LOAD build/default/production/mcc_generated_files/mcc.o
LOAD build/default/production/mcc_generated_files/tmr2.o
LOAD build/default/production/mcc_generated_files/tmr1.o
LOAD build/default/production/mcc_generated_files/traps.o
LOAD build/default/production/mcc_generated_files/uart2.o
LOAD build/default/production/mcc_generated_files/uart1.o
LOAD build/default/production/mcc_generated_files/adc1.o
LOAD build/default/production/src/api/ui.o
LOAD build/default/production/src/api/key_menu.o
LOAD build/default/production/src/api/sysdata.o
LOAD build/default/production/src/api/modbus.o
LOAD build/default/production/src/api/gps.o
LOAD build/default/production/src/api/nbiot.o
LOAD build/default/production/src/app/main.o
LOAD build/default/production/src/app/event.o
LOAD build/default/production/src/app/sample.o
LOAD build/default/production/src/depend/crc16.o
LOAD build/default/production/src/depend/m_string.o
LOAD build/default/production/src/driver/lcd.o
LOAD build/default/production/src/driver/gpio.o
LOAD build/default/production/src/driver/ads1148.o
LOAD build/default/production/src/driver/ads1148_hal.o
LOAD build/default/production/src/driver/ex_eeprom.o
LOAD build/default/production/src/driver/i2c.o
LOAD build/default/production/src/driver/key.o
LOAD build/default/production/src/driver/ad421.o
LOAD build/default/production/src/global/globle.o
LOAD build/default/production/src/soc/delay.o
LOAD build/default/production/src/soc/ticker.o
LOAD build/default/production/src/soc/flash.o
LOAD build/default/production/src/soc/m_asm.o
LOAD build/default/production/src/api/at-cmd.o
                    0x0001                  __MPLAB_BUILD = 0x1
LOAD pPIC24Fxxx
LOAD c:/program files (x86)/microchip/xc16/v1.32/bin/bin/../../lib\libfx-elf.a
                    0x157f8                  __CONFIG4 = 0x157f8
                    0x157fa                  __CONFIG3 = 0x157fa
                    0x157fc                  __CONFIG2 = 0x157fc
                    0x157fe                  __CONFIG1 = 0x157fe
                    0x0200                  __CODE_BASE = 0x200
                    0x155f8                  __CODE_LENGTH = 0x155f8
                    0x0004                  __IVT_BASE = 0x4
                    0x0104                  __AIVT_BASE = 0x104
                    0x0800                  __DATA_BASE = 0x800
                    0x2000                  __DATA_LENGTH = 0x2000

.reset            0x000000          0x4
                  0x000000          0x2 SHORT 0x200 ABSOLUTE (__reset)
                  0x000001          0x2 SHORT 0x4
                  0x000002          0x2 SHORT 0x0 ((ABSOLUTE (__reset) >> 0x10) & 0x7f)
                  0x000003          0x2 SHORT 0x0

.text             0x000200        0x788
 *(.init)
 .init            0x000200         0x4c c:/program files (x86)/microchip/xc16/v1.32/bin/bin/../../lib\liblega-pic30-elf.a(crt0_extended24.o)
                  0x000200                  __resetPRI
                  0x000200                  __reset
                  0x00023c                  __psv_init
 .init            0x00024c         0xb8 c:/program files (x86)/microchip/xc16/v1.32/bin/bin/../../lib\liblega-pic30-elf.a(data_init_24.o)
                  0x000252                  __data_init
                  0x000252                  __data_init_da
 *(.user_init)
 *(.handle)
 .handle          0x000304         0x8c jump_table
 *(.isr*)
 .isr.text        0x000390         0x2e build/default/production/mcc_generated_files/tmr2.o
                  0x000390                  __T2Interrupt
 .isr.text        0x0003be         0x2e build/default/production/mcc_generated_files/tmr1.o
                  0x0003be                  __T1Interrupt
 .isr.text        0x0003ec         0x22 build/default/production/mcc_generated_files/traps.o
                  0x0003ec                  __OscillatorFail
                  0x0003f4                  __StackError
                  0x0003fe                  __AddressError
                  0x000406                  __MathError
 .isr.text        0x00040e         0x6c build/default/production/mcc_generated_files/uart2.o
                  0x00040e                  __U2TXInterrupt
                  0x000418                  __U2RXInterrupt
                  0x000464                  __U2ErrInterrupt
 .isr.text        0x00047a         0x6c build/default/production/mcc_generated_files/uart1.o
                  0x00047a                  __U1TXInterrupt
                  0x000484                  __U1RXInterrupt
                  0x0004d0                  __U1ErrInterrupt
 .isr.text        0x0004e6         0x1c build/default/production/mcc_generated_files/adc1.o
                  0x0004e6                  __ADC1Interrupt
 .isr.text        0x000502          0xc build/default/production/src/driver/lcd.o
                  0x000502                  __Interrupt100
 .isr.text        0x00050e         0x64 build/default/production/src/driver/key.o
                  0x00050e                  __CNInterrupt
 .isr.text        0x000572         0x1e build/default/production/src/soc/ticker.o
                  0x000572                  __RTCCInterrupt
 .isr             0x000590          0x4 default_isr
                  0x000590                  __DefaultInterrupt
 *(.libc)
 *(.libm)
 *(.libdsp)
 *(.lib*)
 .libpic30_crt_start_mode
                  0x000594          0x2 c:/program files (x86)/microchip/xc16/v1.32/bin/bin/../../lib\liblega-pic30-elf.a(crt_start_mode_normalda.Leo)
                  0x000594                  __crt_start_mode
                  0x000594                  __crt_start_mode_normal
 .libm.subsf3     0x000596         0xbc c:/program files (x86)/microchip/xc16/v1.32/bin/bin/../../lib\libm-elf.a(addsf3.daeo)
                  0x000596                  ___subsf3
                  0x000598                  ___addsf3
 .libm.divfs3     0x000652         0x84 c:/program files (x86)/microchip/xc16/v1.32/bin/bin/../../lib\libm-elf.a(divsf3.daeo)
                  0x000652                  ___divsf3
 .libm.divsi3     0x0006d6         0x1e c:/program files (x86)/microchip/xc16/v1.32/bin/bin/../../lib\libm-elf.a(divsi3.daeo)
                  0x0006d6                  ___divsi3
 .libm.eqsf2      0x0006f4          0x4 c:/program files (x86)/microchip/xc16/v1.32/bin/bin/../../lib\libm-elf.a(feqltle.daeo)
                  0x0006f4                  ___eqsf2
                  0x0006f4                  ___ltsf2
                  0x0006f4                  ___lesf2
 .libm.gtsf2      0x0006f8          0x4 c:/program files (x86)/microchip/xc16/v1.32/bin/bin/../../lib\libm-elf.a(fgtge.daeo)
                  0x0006f8                  ___gesf2
                  0x0006f8                  ___gtsf2
 .libm.fixsfsi    0x0006fc         0x42 c:/program files (x86)/microchip/xc16/v1.32/bin/bin/../../lib\libm-elf.a(fixsfsi.daeo)
                  0x0006fc                  _(float, int, long long, short, float, short, int)
 .libm.fixunssfsi
                  0x00073e         0x36 c:/program files (x86)/microchip/xc16/v1.32/bin/bin/../../lib\libm-elf.a(fixunssfsi.daeo)
                  0x00073e                  ___fixunssfsi
 .libm.floatsisf
                  0x000774          0x6 c:/program files (x86)/microchip/xc16/v1.32/bin/bin/../../lib\libm-elf.a(floatsisf.daeo)
                  0x000774                  ___floatsisf
 .libm.floatunsisf
                  0x00077a          0x4 c:/program files (x86)/microchip/xc16/v1.32/bin/bin/../../lib\libm-elf.a(floatunsisf.daeo)
                  0x00077a                  ___floatunsisf
 .libm.nesf2      0x00077e          0x4 c:/program files (x86)/microchip/xc16/v1.32/bin/bin/../../lib\libm-elf.a(fne.daeo)
                  0x00077e                  ___nesf2
 .libm.fpack      0x000782         0x4c c:/program files (x86)/microchip/xc16/v1.32/bin/bin/../../lib\libm-elf.a(fpack.daeo)
                  0x000782                  __fpack
 .libm.funpack    0x0007ce         0x2a c:/program files (x86)/microchip/xc16/v1.32/bin/bin/../../lib\libm-elf.a(funpack.daeo)
                  0x0007ce                  __funpack
 .libm.funpack2
                  0x0007f8         0x10 c:/program files (x86)/microchip/xc16/v1.32/bin/bin/../../lib\libm-elf.a(funpack2.daeo)
                  0x0007f8                  __funpack2
 .libm.fPropagateNaN
                  0x000808         0x12 c:/program files (x86)/microchip/xc16/v1.32/bin/bin/../../lib\libm-elf.a(futil.daeo)
                  0x000808                  __fPropagateNaN
 .libm.fbobExit
                  0x00081a          0x8 c:/program files (x86)/microchip/xc16/v1.32/bin/bin/../../lib\libm-elf.a(futil.daeo)
                  0x00081a                  __fbopExit
 .libm.fbopReturnNaN
                  0x000822          0x6 c:/program files (x86)/microchip/xc16/v1.32/bin/bin/../../lib\libm-elf.a(futil.daeo)
                  0x000822                  __fbopReturnNaN
 .libm.modsi3     0x000828         0x1e c:/program files (x86)/microchip/xc16/v1.32/bin/bin/../../lib\libm-elf.a(modsi3.daeo)
                  0x000828                  ___modsi3
 .libm.mulsf3     0x000846         0x68 c:/program files (x86)/microchip/xc16/v1.32/bin/bin/../../lib\libm-elf.a(mulsf3.daeo)
                  0x000846                  ___mulsf3
 .libm.udivsi3    0x0008ae         0x20 c:/program files (x86)/microchip/xc16/v1.32/bin/bin/../../lib\libm-elf.a(udivsi3.daeo)
                  0x0008ae                  ___udivsi3
 .libm.umodsi3    0x0008ce          0x6 c:/program files (x86)/microchip/xc16/v1.32/bin/bin/../../lib\libm-elf.a(umodsi3.daeo)
                  0x0008ce                  ___umodsi3
 .libm.fcompare
                  0x0008d4         0x36 c:/program files (x86)/microchip/xc16/v1.32/bin/bin/../../lib\libm-elf.a(fcompare.daeo)
                  0x0008d4                  __fcompare
 .libm.floatdisf
                  0x00090a         0x20 c:/program files (x86)/microchip/xc16/v1.32/bin/bin/../../lib\libm-elf.a(floatdisf.daeo)
                  0x00090a                  ___floatdisf
 .libm.floatundisf
                  0x00092a         0x5e c:/program files (x86)/microchip/xc16/v1.32/bin/bin/../../lib\libm-elf.a(floatundisf.daeo)
                  0x00092a                  ___floatundisf

usercode
 *(usercode)

__CONFIG4
 *(__CONFIG4.sec*)

__CONFIG3
 *(__CONFIG3.sec*)

__CONFIG2
 *(__CONFIG2.sec*)

__CONFIG1
 *(__CONFIG1.sec*)

.comment
 *(.comment)

.debug_info       0x000000      0x1be9a
 *(.debug_info)
 .debug_info      0x000000        0xa11 build/default/production/mcc_generated_files/rtcc.o
 .debug_info      0x000a11        0xc21 build/default/production/mcc_generated_files/pin_manager.o
 .debug_info      0x001632        0xc08 build/default/production/mcc_generated_files/interrupt_manager.o
 .debug_info      0x00223a        0x1e9 build/default/production/mcc_generated_files/mcc.o
 .debug_info      0x002423        0x85e build/default/production/mcc_generated_files/tmr2.o
 .debug_info      0x002c81        0x87d build/default/production/mcc_generated_files/tmr1.o
 .debug_info      0x0034fe        0x378 build/default/production/mcc_generated_files/traps.o
 .debug_info      0x003876       0x1054 build/default/production/mcc_generated_files/uart2.o
 .debug_info      0x0048ca       0x107a build/default/production/mcc_generated_files/uart1.o
 .debug_info      0x005944        0xb34 build/default/production/mcc_generated_files/adc1.o
 .debug_info      0x006478       0x244a build/default/production/src/api/ui.o
 .debug_info      0x0088c2       0x33b2 build/default/production/src/api/key_menu.o
 .debug_info      0x00bc74       0x2213 build/default/production/src/api/sysdata.o
 .debug_info      0x00de87       0x105a build/default/production/src/api/modbus.o
 .debug_info      0x00eee1        0x124 build/default/production/src/api/gps.o
 .debug_info      0x00f005       0x11dd build/default/production/src/api/nbiot.o
 .debug_info      0x0101e2       0x1172 build/default/production/src/app/main.o
 .debug_info      0x011354        0x1dd build/default/production/src/app/event.o
 .debug_info      0x011531       0x274c build/default/production/src/app/sample.o
 .debug_info      0x013c7d        0x2cc build/default/production/src/depend/crc16.o
 .debug_info      0x013f49        0x773 build/default/production/src/depend/m_string.o
 .debug_info      0x0146bc       0x1b4c build/default/production/src/driver/lcd.o
 .debug_info      0x016208        0xb5e build/default/production/src/driver/gpio.o
 .debug_info      0x016d66       0x195e build/default/production/src/driver/ads1148.o
 .debug_info      0x0186c4        0xab8 build/default/production/src/driver/ads1148_hal.o
 .debug_info      0x01917c        0x5bb build/default/production/src/driver/ex_eeprom.o
 .debug_info      0x019737        0x368 build/default/production/src/driver/i2c.o
 .debug_info      0x019a9f        0xbf8 build/default/production/src/driver/key.o
 .debug_info      0x01a697        0x54b build/default/production/src/driver/ad421.o
 .debug_info      0x01abe2        0x18d build/default/production/src/global/globle.o
 .debug_info      0x01ad6f        0x17d build/default/production/src/soc/delay.o
 .debug_info      0x01aeec        0x5b4 build/default/production/src/soc/ticker.o
 .debug_info      0x01b4a0        0x421 build/default/production/src/soc/flash.o
 .debug_info      0x01b8c1         0x77 build/default/production/src/soc/m_asm.o
 .debug_info      0x01b938        0x562 build/default/production/src/api/at-cmd.o
 *(.gnu.linkonce.wi.*)

.debug_abbrev     0x000000       0x2bdf
 *(.debug_abbrev)
 .debug_abbrev    0x000000        0x193 build/default/production/mcc_generated_files/rtcc.o
 .debug_abbrev    0x000193         0xc9 build/default/production/mcc_generated_files/pin_manager.o
 .debug_abbrev    0x00025c         0xa7 build/default/production/mcc_generated_files/interrupt_manager.o
 .debug_abbrev    0x000303         0x59 build/default/production/mcc_generated_files/mcc.o
 .debug_abbrev    0x00035c        0x17d build/default/production/mcc_generated_files/tmr2.o
 .debug_abbrev    0x0004d9        0x15b build/default/production/mcc_generated_files/tmr1.o
 .debug_abbrev    0x000634        0x10d build/default/production/mcc_generated_files/traps.o
 .debug_abbrev    0x000741        0x1f5 build/default/production/mcc_generated_files/uart2.o
 .debug_abbrev    0x000936        0x1f5 build/default/production/mcc_generated_files/uart1.o
 .debug_abbrev    0x000b2b        0x165 build/default/production/mcc_generated_files/adc1.o
 .debug_abbrev    0x000c90        0x23b build/default/production/src/api/ui.o
 .debug_abbrev    0x000ecb        0x295 build/default/production/src/api/key_menu.o
 .debug_abbrev    0x001160        0x240 build/default/production/src/api/sysdata.o
 .debug_abbrev    0x0013a0        0x1b2 build/default/production/src/api/modbus.o
 .debug_abbrev    0x001552         0x1f build/default/production/src/api/gps.o
 .debug_abbrev    0x001571        0x1bc build/default/production/src/api/nbiot.o
 .debug_abbrev    0x00172d        0x223 build/default/production/src/app/main.o
 .debug_abbrev    0x001950         0x8c build/default/production/src/app/event.o
 .debug_abbrev    0x0019dc        0x29c build/default/production/src/app/sample.o
 .debug_abbrev    0x001c78         0xbe build/default/production/src/depend/crc16.o
 .debug_abbrev    0x001d36        0x10c build/default/production/src/depend/m_string.o
 .debug_abbrev    0x001e42        0x1f0 build/default/production/src/driver/lcd.o
 .debug_abbrev    0x002032        0x10b build/default/production/src/driver/gpio.o
 .debug_abbrev    0x00213d        0x292 build/default/production/src/driver/ads1148.o
 .debug_abbrev    0x0023cf         0xcd build/default/production/src/driver/ads1148_hal.o
 .debug_abbrev    0x00249c        0x138 build/default/production/src/driver/ex_eeprom.o
 .debug_abbrev    0x0025d4         0xa7 build/default/production/src/driver/i2c.o
 .debug_abbrev    0x00267b         0xfa build/default/production/src/driver/key.o
 .debug_abbrev    0x002775         0xec build/default/production/src/driver/ad421.o
 .debug_abbrev    0x002861         0x44 build/default/production/src/global/globle.o
 .debug_abbrev    0x0028a5         0x67 build/default/production/src/soc/delay.o
 .debug_abbrev    0x00290c        0x11a build/default/production/src/soc/ticker.o
 .debug_abbrev    0x002a26        0x129 build/default/production/src/soc/flash.o
 .debug_abbrev    0x002b4f         0x14 build/default/production/src/soc/m_asm.o
 .debug_abbrev    0x002b63         0x7c build/default/production/src/api/at-cmd.o

.debug_line       0x000000       0x41e6
 *(.debug_line)
 .debug_line      0x000000        0x182 build/default/production/mcc_generated_files/rtcc.o
 .debug_line      0x000182         0xdd build/default/production/mcc_generated_files/pin_manager.o
 .debug_line      0x00025f         0xbd build/default/production/mcc_generated_files/interrupt_manager.o
 .debug_line      0x00031c        0x10a build/default/production/mcc_generated_files/mcc.o
 .debug_line      0x000426        0x164 build/default/production/mcc_generated_files/tmr2.o
 .debug_line      0x00058a        0x140 build/default/production/mcc_generated_files/tmr1.o
 .debug_line      0x0006ca        0x12b build/default/production/mcc_generated_files/traps.o
 .debug_line      0x0007f5        0x1d1 build/default/production/mcc_generated_files/uart2.o
 .debug_line      0x0009c6        0x1d1 build/default/production/mcc_generated_files/uart1.o
 .debug_line      0x000b97        0x13d build/default/production/mcc_generated_files/adc1.o
 .debug_line      0x000cd4        0x50b build/default/production/src/api/ui.o
 .debug_line      0x0011df        0x7e7 build/default/production/src/api/key_menu.o
 .debug_line      0x0019c6        0x2fd build/default/production/src/api/sysdata.o
 .debug_line      0x001cc3        0x17b build/default/production/src/api/modbus.o
 .debug_line      0x001e3e         0x1a build/default/production/src/api/gps.o
 .debug_line      0x001e58        0x315 build/default/production/src/api/nbiot.o
 .debug_line      0x00216d        0x307 build/default/production/src/app/main.o
 .debug_line      0x002474         0xba build/default/production/src/app/event.o
 .debug_line      0x00252e        0x446 build/default/production/src/app/sample.o
 .debug_line      0x002974         0xac build/default/production/src/depend/crc16.o
 .debug_line      0x002a20        0x193 build/default/production/src/depend/m_string.o
 .debug_line      0x002bb3        0x48a build/default/production/src/driver/lcd.o
 .debug_line      0x00303d        0x22e build/default/production/src/driver/gpio.o
 .debug_line      0x00326b        0x2ab build/default/production/src/driver/ads1148.o
 .debug_line      0x003516        0x1e4 build/default/production/src/driver/ads1148_hal.o
 .debug_line      0x0036fa        0x161 build/default/production/src/driver/ex_eeprom.o
 .debug_line      0x00385b        0x171 build/default/production/src/driver/i2c.o
 .debug_line      0x0039cc        0x12c build/default/production/src/driver/key.o
 .debug_line      0x003af8        0x19f build/default/production/src/driver/ad421.o
 .debug_line      0x003c97         0x86 build/default/production/src/global/globle.o
 .debug_line      0x003d1d         0xa2 build/default/production/src/soc/delay.o
 .debug_line      0x003dbf        0x1fa build/default/production/src/soc/ticker.o
 .debug_line      0x003fb9        0x13d build/default/production/src/soc/flash.o
 .debug_line      0x0040f6         0x46 build/default/production/src/soc/m_asm.o
 .debug_line      0x00413c         0xaa build/default/production/src/api/at-cmd.o

.debug_frame      0x000000       0x4834
 *(.debug_frame)
 .debug_frame     0x000000        0x116 build/default/production/mcc_generated_files/rtcc.o
 .debug_frame     0x000116         0x30 build/default/production/mcc_generated_files/pin_manager.o
 .debug_frame     0x000146         0x30 build/default/production/mcc_generated_files/interrupt_manager.o
 .debug_frame     0x000176         0x4c build/default/production/mcc_generated_files/mcc.o
 .debug_frame     0x0001c2        0x188 build/default/production/mcc_generated_files/tmr2.o
 .debug_frame     0x00034a        0x188 build/default/production/mcc_generated_files/tmr1.o
 .debug_frame     0x0004d2         0x80 build/default/production/mcc_generated_files/traps.o
 .debug_frame     0x000552        0x23e build/default/production/mcc_generated_files/uart2.o
 .debug_frame     0x000790        0x23e build/default/production/mcc_generated_files/uart1.o
 .debug_frame     0x0009ce         0xfc build/default/production/mcc_generated_files/adc1.o
 .debug_frame     0x000aca        0x650 build/default/production/src/api/ui.o
 .debug_frame     0x00111a        0xd50 build/default/production/src/api/key_menu.o
 .debug_frame     0x001e6a        0x322 build/default/production/src/api/sysdata.o
 .debug_frame     0x00218c         0xaa build/default/production/src/api/modbus.o
 .debug_frame     0x002236        0x27c build/default/production/src/api/nbiot.o
 .debug_frame     0x0024b2        0x180 build/default/production/src/app/main.o
 .debug_frame     0x002632         0x30 build/default/production/src/app/event.o
 .debug_frame     0x002662        0x3de build/default/production/src/app/sample.o
 .debug_frame     0x002a40         0x68 build/default/production/src/depend/crc16.o
 .debug_frame     0x002aa8        0x20c build/default/production/src/depend/m_string.o
 .debug_frame     0x002cb4        0x714 build/default/production/src/driver/lcd.o
 .debug_frame     0x0033c8        0x4e4 build/default/production/src/driver/gpio.o
 .debug_frame     0x0038ac        0x43c build/default/production/src/driver/ads1148.o
 .debug_frame     0x003ce8        0x538 build/default/production/src/driver/ads1148_hal.o
 .debug_frame     0x004220        0x110 build/default/production/src/driver/ex_eeprom.o
 .debug_frame     0x004330        0x110 build/default/production/src/driver/i2c.o
 .debug_frame     0x004440         0x8c build/default/production/src/driver/key.o
 .debug_frame     0x0044cc        0x12c build/default/production/src/driver/ad421.o
 .debug_frame     0x0045f8         0x4c build/default/production/src/soc/delay.o
 .debug_frame     0x004644        0x16c build/default/production/src/soc/ticker.o
 .debug_frame     0x0047b0         0x84 build/default/production/src/soc/flash.o

.debug_str        0x000000       0x1232
 *(.debug_str)
 .debug_str       0x000000         0x6d build/default/production/mcc_generated_files/rtcc.o
 .debug_str       0x00006d         0x2d build/default/production/mcc_generated_files/pin_manager.o
 .debug_str       0x00009a         0x41 build/default/production/mcc_generated_files/interrupt_manager.o
 .debug_str       0x0000db         0x3e build/default/production/mcc_generated_files/tmr2.o
 .debug_str       0x000119         0x1c build/default/production/mcc_generated_files/tmr1.o
 .debug_str       0x000135          0xc build/default/production/mcc_generated_files/traps.o
 .debug_str       0x000141         0x72 build/default/production/mcc_generated_files/uart2.o
 .debug_str       0x0001b3         0x72 build/default/production/mcc_generated_files/uart1.o
 .debug_str       0x000225         0x46 build/default/production/mcc_generated_files/adc1.o
 .debug_str       0x00026b        0x1f9 build/default/production/src/api/ui.o
 .debug_str       0x000464        0x264 build/default/production/src/api/key_menu.o
 .debug_str       0x0006c8        0x130 build/default/production/src/api/sysdata.o
 .debug_str       0x0007f8         0x97 build/default/production/src/api/modbus.o
 .debug_str       0x00088f        0x1b0 build/default/production/src/api/nbiot.o
 .debug_str       0x000a3f        0x11f build/default/production/src/app/main.o
 .debug_str       0x000b5e          0xe build/default/production/src/app/event.o
 .debug_str       0x000b6c        0x2f8 build/default/production/src/app/sample.o
 .debug_str       0x000e64         0x14 build/default/production/src/depend/crc16.o
 .debug_str       0x000e78          0x9 build/default/production/src/depend/m_string.o
 .debug_str       0x000e81        0x1cb build/default/production/src/driver/lcd.o
 .debug_str       0x00104c         0x33 build/default/production/src/driver/gpio.o
 .debug_str       0x00107f         0x92 build/default/production/src/driver/ads1148.o
 .debug_str       0x001111         0x30 build/default/production/src/driver/ex_eeprom.o
 .debug_str       0x001141         0x4f build/default/production/src/driver/key.o
 .debug_str       0x001190         0x1c build/default/production/src/driver/ad421.o
 .debug_str       0x0011ac         0x68 build/default/production/src/soc/ticker.o
 .debug_str       0x001214         0x1e build/default/production/src/soc/flash.o

.debug_loc
 *(.debug_loc)

.debug_macinfo
 *(.debug_macinfo)

.debug_pubnames
                  0x000000       0x49ec
 *(.debug_pubnames)
 .debug_pubnames
                  0x000000         0x83 build/default/production/mcc_generated_files/rtcc.o
 .debug_pubnames
                  0x000083         0x2d build/default/production/mcc_generated_files/pin_manager.o
 .debug_pubnames
                  0x0000b0         0x2b build/default/production/mcc_generated_files/interrupt_manager.o
 .debug_pubnames
                  0x0000db         0x42 build/default/production/mcc_generated_files/mcc.o
 .debug_pubnames
                  0x00011d        0x12b build/default/production/mcc_generated_files/tmr2.o
 .debug_pubnames
                  0x000248        0x11f build/default/production/mcc_generated_files/tmr1.o
 .debug_pubnames
                  0x000367         0x6f build/default/production/mcc_generated_files/traps.o
 .debug_pubnames
                  0x0003d6        0x1e2 build/default/production/mcc_generated_files/uart2.o
 .debug_pubnames
                  0x0005b8        0x1e2 build/default/production/mcc_generated_files/uart1.o
 .debug_pubnames
                  0x00079a         0xcb build/default/production/mcc_generated_files/adc1.o
 .debug_pubnames
                  0x000865        0x61a build/default/production/src/api/ui.o
 .debug_pubnames
                  0x000e7f        0xd6e build/default/production/src/api/key_menu.o
 .debug_pubnames
                  0x001bed        0x5d0 build/default/production/src/api/sysdata.o
 .debug_pubnames
                  0x0021bd         0x99 build/default/production/src/api/modbus.o
 .debug_pubnames
                  0x002256        0x27d build/default/production/src/api/nbiot.o
 .debug_pubnames
                  0x0024d3        0x1a4 build/default/production/src/app/main.o
 .debug_pubnames
                  0x002677         0x65 build/default/production/src/app/event.o
 .debug_pubnames
                  0x0026dc        0x5ed build/default/production/src/app/sample.o
 .debug_pubnames
                  0x002cc9         0x58 build/default/production/src/depend/crc16.o
 .debug_pubnames
                  0x002d21        0x13d build/default/production/src/depend/m_string.o
 .debug_pubnames
                  0x002e5e        0x60f build/default/production/src/driver/lcd.o
 .debug_pubnames
                  0x00346d        0x3a4 build/default/production/src/driver/gpio.o
 .debug_pubnames
                  0x003811        0x404 build/default/production/src/driver/ads1148.o
 .debug_pubnames
                  0x003c15        0x592 build/default/production/src/driver/ads1148_hal.o
 .debug_pubnames
                  0x0041a7        0x11d build/default/production/src/driver/ex_eeprom.o
 .debug_pubnames
                  0x0042c4         0xbb build/default/production/src/driver/i2c.o
 .debug_pubnames
                  0x00437f         0x5f build/default/production/src/driver/key.o
 .debug_pubnames
                  0x0043de        0x14a build/default/production/src/driver/ad421.o
 .debug_pubnames
                  0x004528         0x4b build/default/production/src/global/globle.o
 .debug_pubnames
                  0x004573         0x2c build/default/production/src/soc/delay.o
 .debug_pubnames
                  0x00459f        0x14d build/default/production/src/soc/ticker.o
 .debug_pubnames
                  0x0046ec         0x90 build/default/production/src/soc/flash.o
 .debug_pubnames
                  0x00477c        0x270 build/default/production/src/api/at-cmd.o

.debug_ranges
 *(.debug_ranges)

.debug_aranges    0x000000        0x300
 *(.debug_aranges)
 .debug_aranges
                  0x000000         0x18 build/default/production/mcc_generated_files/rtcc.o
 .debug_aranges
                  0x000018         0x18 build/default/production/mcc_generated_files/pin_manager.o
 .debug_aranges
                  0x000030         0x18 build/default/production/mcc_generated_files/interrupt_manager.o
 .debug_aranges
                  0x000048         0x18 build/default/production/mcc_generated_files/mcc.o
 .debug_aranges
                  0x000060         0x18 build/default/production/mcc_generated_files/tmr2.o
 .debug_aranges
                  0x000078         0x18 build/default/production/mcc_generated_files/tmr1.o
 .debug_aranges
                  0x000090         0x18 build/default/production/mcc_generated_files/traps.o
 .debug_aranges
                  0x0000a8         0x18 build/default/production/mcc_generated_files/uart2.o
 .debug_aranges
                  0x0000c0         0x18 build/default/production/mcc_generated_files/uart1.o
 .debug_aranges
                  0x0000d8         0x18 build/default/production/mcc_generated_files/adc1.o
 .debug_aranges
                  0x0000f0         0x18 build/default/production/src/api/ui.o
 .debug_aranges
                  0x000108         0x18 build/default/production/src/api/key_menu.o
 .debug_aranges
                  0x000120         0x18 build/default/production/src/api/sysdata.o
 .debug_aranges
                  0x000138         0x18 build/default/production/src/api/modbus.o
 .debug_aranges
                  0x000150         0x18 build/default/production/src/api/nbiot.o
 .debug_aranges
                  0x000168         0x18 build/default/production/src/app/main.o
 .debug_aranges
                  0x000180         0x18 build/default/production/src/app/event.o
 .debug_aranges
                  0x000198         0x18 build/default/production/src/app/sample.o
 .debug_aranges
                  0x0001b0         0x18 build/default/production/src/depend/crc16.o
 .debug_aranges
                  0x0001c8         0x18 build/default/production/src/depend/m_string.o
 .debug_aranges
                  0x0001e0         0x18 build/default/production/src/driver/lcd.o
 .debug_aranges
                  0x0001f8         0x18 build/default/production/src/driver/gpio.o
 .debug_aranges
                  0x000210         0x18 build/default/production/src/driver/ads1148.o
 .debug_aranges
                  0x000228         0x18 build/default/production/src/driver/ads1148_hal.o
 .debug_aranges
                  0x000240         0x18 build/default/production/src/driver/ex_eeprom.o
 .debug_aranges
                  0x000258         0x18 build/default/production/src/driver/i2c.o
 .debug_aranges
                  0x000270         0x18 build/default/production/src/driver/key.o
 .debug_aranges
                  0x000288         0x18 build/default/production/src/driver/ad421.o
 .debug_aranges
                  0x0002a0         0x18 build/default/production/src/soc/delay.o
 .debug_aranges
                  0x0002b8         0x18 build/default/production/src/soc/ticker.o
 .debug_aranges
                  0x0002d0         0x18 build/default/production/src/soc/flash.o
 .debug_aranges
                  0x0002e8         0x18 build/default/production/src/soc/m_asm.o
                    0x0000                  WREG0 = 0x0
                    0x0000                  _WREG0 = 0x0
                    0x0002                  WREG1 = 0x2
                    0x0002                  _WREG1 = 0x2
                    0x0004                  WREG2 = 0x4
                    0x0004                  _WREG2 = 0x4
                    0x0006                  WREG3 = 0x6
                    0x0006                  _WREG3 = 0x6
                    0x0008                  WREG4 = 0x8
                    0x0008                  _WREG4 = 0x8
                    0x000a                  WREG5 = 0xa
                    0x000a                  _WREG5 = 0xa
                    0x000c                  WREG6 = 0xc
                    0x000c                  _WREG6 = 0xc
                    0x000e                  WREG7 = 0xe
                    0x000e                  _WREG7 = 0xe
                    0x0010                  WREG8 = 0x10
                    0x0010                  _WREG8 = 0x10
                    0x0012                  WREG9 = 0x12
                    0x0012                  _WREG9 = 0x12
                    0x0014                  WREG10 = 0x14
                    0x0014                  _WREG10 = 0x14
                    0x0016                  WREG11 = 0x16
                    0x0016                  _WREG11 = 0x16
                    0x0018                  WREG12 = 0x18
                    0x0018                  _WREG12 = 0x18
                    0x001a                  WREG13 = 0x1a
                    0x001a                  _WREG13 = 0x1a
                    0x001c                  WREG14 = 0x1c
                    0x001c                  _WREG14 = 0x1c
                    0x001e                  WREG15 = 0x1e
                    0x001e                  _WREG15 = 0x1e
                    0x0020                  SPLIM = 0x20
                    0x0020                  _SPLIM = 0x20
                    0x002e                  PCL = 0x2e
                    0x002e                  _PCL = 0x2e
                    0x0030                  PCH = 0x30
                    0x0030                  _PCH = 0x30
                    0x0032                  DSRPAG = 0x32
                    0x0032                  _DSRPAG = 0x32
                    0x0034                  DSWPAG = 0x34
                    0x0034                  _DSWPAG = 0x34
                    0x0036                  RCOUNT = 0x36
                    0x0036                  _RCOUNT = 0x36
                    0x0042                  SR = 0x42
                    0x0042                  _SR = 0x42
                    0x0042                  _SRbits = 0x42
                    0x0044                  CORCON = 0x44
                    0x0044                  _CORCON = 0x44
                    0x0044                  _CORCONbits = 0x44
                    0x0052                  DISICNT = 0x52
                    0x0052                  _DISICNT = 0x52
                    0x0054                  TBLPAG = 0x54
                    0x0054                  _TBLPAG = 0x54
                    0x0056                  CNPD1 = 0x56
                    0x0056                  _CNPD1 = 0x56
                    0x0056                  _CNPD1bits = 0x56
                    0x0058                  CNPD2 = 0x58
                    0x0058                  _CNPD2 = 0x58
                    0x0058                  _CNPD2bits = 0x58
                    0x005a                  CNPD3 = 0x5a
                    0x005a                  _CNPD3 = 0x5a
                    0x005a                  _CNPD3bits = 0x5a
                    0x005c                  CNPD4 = 0x5c
                    0x005c                  _CNPD4 = 0x5c
                    0x005c                  _CNPD4bits = 0x5c
                    0x005e                  CNPD5 = 0x5e
                    0x005e                  _CNPD5 = 0x5e
                    0x005e                  _CNPD5bits = 0x5e
                    0x0060                  CNPD6 = 0x60
                    0x0060                  _CNPD6 = 0x60
                    0x0060                  _CNPD6bits = 0x60
                    0x0062                  CNEN1 = 0x62
                    0x0062                  _CNEN1 = 0x62
                    0x0062                  _CNEN1bits = 0x62
                    0x0064                  CNEN2 = 0x64
                    0x0064                  _CNEN2 = 0x64
                    0x0064                  _CNEN2bits = 0x64
                    0x0066                  CNEN3 = 0x66
                    0x0066                  _CNEN3 = 0x66
                    0x0066                  _CNEN3bits = 0x66
                    0x0068                  CNEN4 = 0x68
                    0x0068                  _CNEN4 = 0x68
                    0x0068                  _CNEN4bits = 0x68
                    0x006a                  CNEN5 = 0x6a
                    0x006a                  _CNEN5 = 0x6a
                    0x006a                  _CNEN5bits = 0x6a
                    0x006c                  CNEN6 = 0x6c
                    0x006c                  _CNEN6 = 0x6c
                    0x006c                  _CNEN6bits = 0x6c
                    0x006e                  CNPU1 = 0x6e
                    0x006e                  _CNPU1 = 0x6e
                    0x006e                  _CNPU1bits = 0x6e
                    0x0070                  CNPU2 = 0x70
                    0x0070                  _CNPU2 = 0x70
                    0x0070                  _CNPU2bits = 0x70
                    0x0072                  CNPU3 = 0x72
                    0x0072                  _CNPU3 = 0x72
                    0x0072                  _CNPU3bits = 0x72
                    0x0074                  CNPU4 = 0x74
                    0x0074                  _CNPU4 = 0x74
                    0x0074                  _CNPU4bits = 0x74
                    0x0076                  CNPU5 = 0x76
                    0x0076                  _CNPU5 = 0x76
                    0x0076                  _CNPU5bits = 0x76
                    0x0078                  CNPU6 = 0x78
                    0x0078                  _CNPU6 = 0x78
                    0x0078                  _CNPU6bits = 0x78
                    0x0080                  INTCON1 = 0x80
                    0x0080                  _INTCON1 = 0x80
                    0x0080                  _INTCON1bits = 0x80
                    0x0082                  INTCON2 = 0x82
                    0x0082                  _INTCON2 = 0x82
                    0x0082                  _INTCON2bits = 0x82
                    0x0084                  IFS0 = 0x84
                    0x0084                  _IFS0 = 0x84
                    0x0084                  _IFS0bits = 0x84
                    0x0086                  IFS1 = 0x86
                    0x0086                  _IFS1 = 0x86
                    0x0086                  _IFS1bits = 0x86
                    0x0088                  IFS2 = 0x88
                    0x0088                  _IFS2 = 0x88
                    0x0088                  _IFS2bits = 0x88
                    0x008a                  IFS3 = 0x8a
                    0x008a                  _IFS3 = 0x8a
                    0x008a                  _IFS3bits = 0x8a
                    0x008c                  IFS4 = 0x8c
                    0x008c                  _IFS4 = 0x8c
                    0x008c                  _IFS4bits = 0x8c
                    0x008e                  IFS5 = 0x8e
                    0x008e                  _IFS5 = 0x8e
                    0x008e                  _IFS5bits = 0x8e
                    0x0090                  IFS6 = 0x90
                    0x0090                  _IFS6 = 0x90
                    0x0090                  _IFS6bits = 0x90
                    0x0092                  IFS7 = 0x92
                    0x0092                  _IFS7 = 0x92
                    0x0092                  _IFS7bits = 0x92
                    0x0094                  IEC0 = 0x94
                    0x0094                  _IEC0 = 0x94
                    0x0094                  _IEC0bits = 0x94
                    0x0096                  IEC1 = 0x96
                    0x0096                  _IEC1 = 0x96
                    0x0096                  _IEC1bits = 0x96
                    0x0098                  IEC2 = 0x98
                    0x0098                  _IEC2 = 0x98
                    0x0098                  _IEC2bits = 0x98
                    0x009a                  IEC3 = 0x9a
                    0x009a                  _IEC3 = 0x9a
                    0x009a                  _IEC3bits = 0x9a
                    0x009c                  IEC4 = 0x9c
                    0x009c                  _IEC4 = 0x9c
                    0x009c                  _IEC4bits = 0x9c
                    0x009e                  IEC5 = 0x9e
                    0x009e                  _IEC5 = 0x9e
                    0x009e                  _IEC5bits = 0x9e
                    0x00a0                  IEC6 = 0xa0
                    0x00a0                  _IEC6 = 0xa0
                    0x00a0                  _IEC6bits = 0xa0
                    0x00a2                  IEC7 = 0xa2
                    0x00a2                  _IEC7 = 0xa2
                    0x00a2                  _IEC7bits = 0xa2
                    0x00a4                  IPC0 = 0xa4
                    0x00a4                  _IPC0 = 0xa4
                    0x00a4                  _IPC0bits = 0xa4
                    0x00a6                  IPC1 = 0xa6
                    0x00a6                  _IPC1 = 0xa6
                    0x00a6                  _IPC1bits = 0xa6
                    0x00a8                  IPC2 = 0xa8
                    0x00a8                  _IPC2 = 0xa8
                    0x00a8                  _IPC2bits = 0xa8
                    0x00aa                  IPC3 = 0xaa
                    0x00aa                  _IPC3 = 0xaa
                    0x00aa                  _IPC3bits = 0xaa
                    0x00ac                  IPC4 = 0xac
                    0x00ac                  _IPC4 = 0xac
                    0x00ac                  _IPC4bits = 0xac
                    0x00ae                  IPC5 = 0xae
                    0x00ae                  _IPC5 = 0xae
                    0x00ae                  _IPC5bits = 0xae
                    0x00b0                  IPC6 = 0xb0
                    0x00b0                  _IPC6 = 0xb0
                    0x00b0                  _IPC6bits = 0xb0
                    0x00b2                  IPC7 = 0xb2
                    0x00b2                  _IPC7 = 0xb2
                    0x00b2                  _IPC7bits = 0xb2
                    0x00b4                  IPC8 = 0xb4
                    0x00b4                  _IPC8 = 0xb4
                    0x00b4                  _IPC8bits = 0xb4
                    0x00b6                  IPC9 = 0xb6
                    0x00b6                  _IPC9 = 0xb6
                    0x00b6                  _IPC9bits = 0xb6
                    0x00b8                  IPC10 = 0xb8
                    0x00b8                  _IPC10 = 0xb8
                    0x00b8                  _IPC10bits = 0xb8
                    0x00ba                  IPC11 = 0xba
                    0x00ba                  _IPC11 = 0xba
                    0x00ba                  _IPC11bits = 0xba
                    0x00bc                  IPC12 = 0xbc
                    0x00bc                  _IPC12 = 0xbc
                    0x00bc                  _IPC12bits = 0xbc
                    0x00be                  IPC13 = 0xbe
                    0x00be                  _IPC13 = 0xbe
                    0x00be                  _IPC13bits = 0xbe
                    0x00c2                  IPC15 = 0xc2
                    0x00c2                  _IPC15 = 0xc2
                    0x00c2                  _IPC15bits = 0xc2
                    0x00c4                  IPC16 = 0xc4
                    0x00c4                  _IPC16 = 0xc4
                    0x00c4                  _IPC16bits = 0xc4
                    0x00c8                  IPC18 = 0xc8
                    0x00c8                  _IPC18 = 0xc8
                    0x00c8                  _IPC18bits = 0xc8
                    0x00ca                  IPC19 = 0xca
                    0x00ca                  _IPC19 = 0xca
                    0x00ca                  _IPC19bits = 0xca
                    0x00cc                  IPC20 = 0xcc
                    0x00cc                  _IPC20 = 0xcc
                    0x00cc                  _IPC20bits = 0xcc
                    0x00ce                  IPC21 = 0xce
                    0x00ce                  _IPC21 = 0xce
                    0x00ce                  _IPC21bits = 0xce
                    0x00d0                  IPC22 = 0xd0
                    0x00d0                  _IPC22 = 0xd0
                    0x00d0                  _IPC22bits = 0xd0
                    0x00d6                  IPC25 = 0xd6
                    0x00d6                  _IPC25 = 0xd6
                    0x00d6                  _IPC25bits = 0xd6
                    0x00de                  IPC29 = 0xde
                    0x00de                  _IPC29 = 0xde
                    0x00de                  _IPC29bits = 0xde
                    0x00e0                  INTTREG = 0xe0
                    0x00e0                  _INTTREG = 0xe0
                    0x00e0                  _INTTREGbits = 0xe0
                    0x0100                  TMR1 = 0x100
                    0x0100                  _TMR1 = 0x100
                    0x0102                  PR1 = 0x102
                    0x0102                  _PR1 = 0x102
                    0x0104                  T1CON = 0x104
                    0x0104                  _T1CON = 0x104
                    0x0104                  _T1CONbits = 0x104
                    0x0106                  TMR2 = 0x106
                    0x0106                  _TMR2 = 0x106
                    0x0108                  TMR3HLD = 0x108
                    0x0108                  _TMR3HLD = 0x108
                    0x010a                  TMR3 = 0x10a
                    0x010a                  _TMR3 = 0x10a
                    0x010c                  PR2 = 0x10c
                    0x010c                  _PR2 = 0x10c
                    0x010e                  PR3 = 0x10e
                    0x010e                  _PR3 = 0x10e
                    0x0110                  T2CON = 0x110
                    0x0110                  _T2CON = 0x110
                    0x0110                  _T2CONbits = 0x110
                    0x0112                  T3CON = 0x112
                    0x0112                  _T3CON = 0x112
                    0x0112                  _T3CONbits = 0x112
                    0x0114                  TMR4 = 0x114
                    0x0114                  _TMR4 = 0x114
                    0x0116                  TMR5HLD = 0x116
                    0x0116                  _TMR5HLD = 0x116
                    0x0118                  TMR5 = 0x118
                    0x0118                  _TMR5 = 0x118
                    0x011a                  PR4 = 0x11a
                    0x011a                  _PR4 = 0x11a
                    0x011c                  PR5 = 0x11c
                    0x011c                  _PR5 = 0x11c
                    0x011e                  T4CON = 0x11e
                    0x011e                  _T4CON = 0x11e
                    0x011e                  _T4CONbits = 0x11e
                    0x0120                  T5CON = 0x120
                    0x0120                  _T5CON = 0x120
                    0x0120                  _T5CONbits = 0x120
                    0x0140                  IC1CON1 = 0x140
                    0x0140                  _IC1CON1 = 0x140
                    0x0140                  _IC1CON1bits = 0x140
                    0x0142                  IC1CON2 = 0x142
                    0x0142                  _IC1CON2 = 0x142
                    0x0142                  _IC1CON2bits = 0x142
                    0x0144                  IC1BUF = 0x144
                    0x0144                  _IC1BUF = 0x144
                    0x0146                  IC1TMR = 0x146
                    0x0146                  _IC1TMR = 0x146
                    0x0148                  IC2CON1 = 0x148
                    0x0148                  _IC2CON1 = 0x148
                    0x0148                  _IC2CON1bits = 0x148
                    0x014a                  IC2CON2 = 0x14a
                    0x014a                  _IC2CON2 = 0x14a
                    0x014a                  _IC2CON2bits = 0x14a
                    0x014c                  IC2BUF = 0x14c
                    0x014c                  _IC2BUF = 0x14c
                    0x014e                  IC2TMR = 0x14e
                    0x014e                  _IC2TMR = 0x14e
                    0x0150                  IC3CON1 = 0x150
                    0x0150                  _IC3CON1 = 0x150
                    0x0150                  _IC3CON1bits = 0x150
                    0x0152                  IC3CON2 = 0x152
                    0x0152                  _IC3CON2 = 0x152
                    0x0152                  _IC3CON2bits = 0x152
                    0x0154                  IC3BUF = 0x154
                    0x0154                  _IC3BUF = 0x154
                    0x0156                  IC3TMR = 0x156
                    0x0156                  _IC3TMR = 0x156
                    0x0158                  IC4CON1 = 0x158
                    0x0158                  _IC4CON1 = 0x158
                    0x0158                  _IC4CON1bits = 0x158
                    0x015a                  IC4CON2 = 0x15a
                    0x015a                  _IC4CON2 = 0x15a
                    0x015a                  _IC4CON2bits = 0x15a
                    0x015c                  IC4BUF = 0x15c
                    0x015c                  _IC4BUF = 0x15c
                    0x015e                  IC4TMR = 0x15e
                    0x015e                  _IC4TMR = 0x15e
                    0x0160                  IC5CON1 = 0x160
                    0x0160                  _IC5CON1 = 0x160
                    0x0160                  _IC5CON1bits = 0x160
                    0x0162                  IC5CON2 = 0x162
                    0x0162                  _IC5CON2 = 0x162
                    0x0162                  _IC5CON2bits = 0x162
                    0x0164                  IC5BUF = 0x164
                    0x0164                  _IC5BUF = 0x164
                    0x0166                  IC5TMR = 0x166
                    0x0166                  _IC5TMR = 0x166
                    0x0168                  IC6CON1 = 0x168
                    0x0168                  _IC6CON1 = 0x168
                    0x0168                  _IC6CON1bits = 0x168
                    0x016a                  IC6CON2 = 0x16a
                    0x016a                  _IC6CON2 = 0x16a
                    0x016a                  _IC6CON2bits = 0x16a
                    0x016c                  IC6BUF = 0x16c
                    0x016c                  _IC6BUF = 0x16c
                    0x016e                  IC6TMR = 0x16e
                    0x016e                  _IC6TMR = 0x16e
                    0x0170                  IC7CON1 = 0x170
                    0x0170                  _IC7CON1 = 0x170
                    0x0170                  _IC7CON1bits = 0x170
                    0x0172                  IC7CON2 = 0x172
                    0x0172                  _IC7CON2 = 0x172
                    0x0172                  _IC7CON2bits = 0x172
                    0x0174                  IC7BUF = 0x174
                    0x0174                  _IC7BUF = 0x174
                    0x0176                  IC7TMR = 0x176
                    0x0176                  _IC7TMR = 0x176
                    0x0190                  OC1CON1 = 0x190
                    0x0190                  _OC1CON1 = 0x190
                    0x0190                  _OC1CON1bits = 0x190
                    0x0192                  OC1CON2 = 0x192
                    0x0192                  _OC1CON2 = 0x192
                    0x0192                  _OC1CON2bits = 0x192
                    0x0194                  OC1RS = 0x194
                    0x0194                  _OC1RS = 0x194
                    0x0196                  OC1R = 0x196
                    0x0196                  _OC1R = 0x196
                    0x0198                  OC1TMR = 0x198
                    0x0198                  _OC1TMR = 0x198
                    0x019a                  OC2CON1 = 0x19a
                    0x019a                  _OC2CON1 = 0x19a
                    0x019a                  _OC2CON1bits = 0x19a
                    0x019c                  OC2CON2 = 0x19c
                    0x019c                  _OC2CON2 = 0x19c
                    0x019c                  _OC2CON2bits = 0x19c
                    0x019e                  OC2RS = 0x19e
                    0x019e                  _OC2RS = 0x19e
                    0x01a0                  OC2R = 0x1a0
                    0x01a0                  _OC2R = 0x1a0
                    0x01a2                  OC2TMR = 0x1a2
                    0x01a2                  _OC2TMR = 0x1a2
                    0x01a4                  OC3CON1 = 0x1a4
                    0x01a4                  _OC3CON1 = 0x1a4
                    0x01a4                  _OC3CON1bits = 0x1a4
                    0x01a6                  OC3CON2 = 0x1a6
                    0x01a6                  _OC3CON2 = 0x1a6
                    0x01a6                  _OC3CON2bits = 0x1a6
                    0x01a8                  OC3RS = 0x1a8
                    0x01a8                  _OC3RS = 0x1a8
                    0x01aa                  OC3R = 0x1aa
                    0x01aa                  _OC3R = 0x1aa
                    0x01ac                  OC3TMR = 0x1ac
                    0x01ac                  _OC3TMR = 0x1ac
                    0x01ae                  OC4CON1 = 0x1ae
                    0x01ae                  _OC4CON1 = 0x1ae
                    0x01ae                  _OC4CON1bits = 0x1ae
                    0x01b0                  OC4CON2 = 0x1b0
                    0x01b0                  _OC4CON2 = 0x1b0
                    0x01b0                  _OC4CON2bits = 0x1b0
                    0x01b2                  OC4RS = 0x1b2
                    0x01b2                  _OC4RS = 0x1b2
                    0x01b4                  OC4R = 0x1b4
                    0x01b4                  _OC4R = 0x1b4
                    0x01b6                  OC4TMR = 0x1b6
                    0x01b6                  _OC4TMR = 0x1b6
                    0x01b8                  OC5CON1 = 0x1b8
                    0x01b8                  _OC5CON1 = 0x1b8
                    0x01b8                  _OC5CON1bits = 0x1b8
                    0x01ba                  OC5CON2 = 0x1ba
                    0x01ba                  _OC5CON2 = 0x1ba
                    0x01ba                  _OC5CON2bits = 0x1ba
                    0x01bc                  OC5RS = 0x1bc
                    0x01bc                  _OC5RS = 0x1bc
                    0x01be                  OC5R = 0x1be
                    0x01be                  _OC5R = 0x1be
                    0x01c0                  OC5TMR = 0x1c0
                    0x01c0                  _OC5TMR = 0x1c0
                    0x01c2                  OC6CON1 = 0x1c2
                    0x01c2                  _OC6CON1 = 0x1c2
                    0x01c2                  _OC6CON1bits = 0x1c2
                    0x01c4                  OC6CON2 = 0x1c4
                    0x01c4                  _OC6CON2 = 0x1c4
                    0x01c4                  _OC6CON2bits = 0x1c4
                    0x01c6                  OC6RS = 0x1c6
                    0x01c6                  _OC6RS = 0x1c6
                    0x01c8                  OC6R = 0x1c8
                    0x01c8                  _OC6R = 0x1c8
                    0x01ca                  OC6TMR = 0x1ca
                    0x01ca                  _OC6TMR = 0x1ca
                    0x01cc                  OC7CON1 = 0x1cc
                    0x01cc                  _OC7CON1 = 0x1cc
                    0x01cc                  _OC7CON1bits = 0x1cc
                    0x01ce                  OC7CON2 = 0x1ce
                    0x01ce                  _OC7CON2 = 0x1ce
                    0x01ce                  _OC7CON2bits = 0x1ce
                    0x01d0                  OC7RS = 0x1d0
                    0x01d0                  _OC7RS = 0x1d0
                    0x01d2                  OC7R = 0x1d2
                    0x01d2                  _OC7R = 0x1d2
                    0x01d4                  OC7TMR = 0x1d4
                    0x01d4                  _OC7TMR = 0x1d4
                    0x0200                  I2C1RCV = 0x200
                    0x0200                  _I2C1RCV = 0x200
                    0x0202                  I2C1TRN = 0x202
                    0x0202                  _I2C1TRN = 0x202
                    0x0204                  I2C1BRG = 0x204
                    0x0204                  _I2C1BRG = 0x204
                    0x0206                  I2C1CON = 0x206
                    0x0206                  _I2C1CON = 0x206
                    0x0206                  _I2C1CONbits = 0x206
                    0x0208                  I2C1STAT = 0x208
                    0x0208                  _I2C1STAT = 0x208
                    0x0208                  _I2C1STATbits = 0x208
                    0x020a                  I2C1ADD = 0x20a
                    0x020a                  _I2C1ADD = 0x20a
                    0x020c                  I2C1MSK = 0x20c
                    0x020c                  _I2C1MSK = 0x20c
                    0x0210                  I2C2RCV = 0x210
                    0x0210                  _I2C2RCV = 0x210
                    0x0212                  I2C2TRN = 0x212
                    0x0212                  _I2C2TRN = 0x212
                    0x0214                  I2C2BRG = 0x214
                    0x0214                  _I2C2BRG = 0x214
                    0x0216                  I2C2CON = 0x216
                    0x0216                  _I2C2CON = 0x216
                    0x0216                  _I2C2CONbits = 0x216
                    0x0218                  I2C2STAT = 0x218
                    0x0218                  _I2C2STAT = 0x218
                    0x0218                  _I2C2STATbits = 0x218
                    0x021a                  I2C2ADD = 0x21a
                    0x021a                  _I2C2ADD = 0x21a
                    0x021c                  I2C2MSK = 0x21c
                    0x021c                  _I2C2MSK = 0x21c
                    0x0220                  U1MODE = 0x220
                    0x0220                  _U1MODE = 0x220
                    0x0220                  _U1MODEbits = 0x220
                    0x0222                  U1STA = 0x222
                    0x0222                  _U1STA = 0x222
                    0x0222                  _U1STAbits = 0x222
                    0x0224                  U1TXREG = 0x224
                    0x0224                  _U1TXREG = 0x224
                    0x0224                  _U1TXREGbits = 0x224
                    0x0226                  U1RXREG = 0x226
                    0x0226                  _U1RXREG = 0x226
                    0x0226                  _U1RXREGbits = 0x226
                    0x0228                  U1BRG = 0x228
                    0x0228                  _U1BRG = 0x228
                    0x0230                  U2MODE = 0x230
                    0x0230                  _U2MODE = 0x230
                    0x0230                  _U2MODEbits = 0x230
                    0x0232                  U2STA = 0x232
                    0x0232                  _U2STA = 0x232
                    0x0232                  _U2STAbits = 0x232
                    0x0234                  U2TXREG = 0x234
                    0x0234                  _U2TXREG = 0x234
                    0x0234                  _U2TXREGbits = 0x234
                    0x0236                  U2RXREG = 0x236
                    0x0236                  _U2RXREG = 0x236
                    0x0236                  _U2RXREGbits = 0x236
                    0x0238                  U2BRG = 0x238
                    0x0238                  _U2BRG = 0x238
                    0x0240                  SPI1STAT = 0x240
                    0x0240                  _SPI1STAT = 0x240
                    0x0240                  _SPI1STATbits = 0x240
                    0x0242                  SPI1CON1 = 0x242
                    0x0242                  _SPI1CON1 = 0x242
                    0x0242                  _SPI1CON1bits = 0x242
                    0x0244                  SPI1CON2 = 0x244
                    0x0244                  _SPI1CON2 = 0x244
                    0x0244                  _SPI1CON2bits = 0x244
                    0x0248                  SPI1BUF = 0x248
                    0x0248                  _SPI1BUF = 0x248
                    0x0250                  U3MODE = 0x250
                    0x0250                  _U3MODE = 0x250
                    0x0250                  _U3MODEbits = 0x250
                    0x0252                  U3STA = 0x252
                    0x0252                  _U3STA = 0x252
                    0x0252                  _U3STAbits = 0x252
                    0x0254                  U3TXREG = 0x254
                    0x0254                  _U3TXREG = 0x254
                    0x0254                  _U3TXREGbits = 0x254
                    0x0256                  U3RXREG = 0x256
                    0x0256                  _U3RXREG = 0x256
                    0x0256                  _U3RXREGbits = 0x256
                    0x0258                  U3BRG = 0x258
                    0x0258                  _U3BRG = 0x258
                    0x0260                  SPI2STAT = 0x260
                    0x0260                  _SPI2STAT = 0x260
                    0x0260                  _SPI2STATbits = 0x260
                    0x0262                  SPI2CON1 = 0x262
                    0x0262                  _SPI2CON1 = 0x262
                    0x0262                  _SPI2CON1bits = 0x262
                    0x0264                  SPI2CON2 = 0x264
                    0x0264                  _SPI2CON2 = 0x264
                    0x0264                  _SPI2CON2bits = 0x264
                    0x0268                  SPI2BUF = 0x268
                    0x0268                  _SPI2BUF = 0x268
                    0x02b0                  U4MODE = 0x2b0
                    0x02b0                  _U4MODE = 0x2b0
                    0x02b0                  _U4MODEbits = 0x2b0
                    0x02b2                  U4STA = 0x2b2
                    0x02b2                  _U4STA = 0x2b2
                    0x02b2                  _U4STAbits = 0x2b2
                    0x02b4                  U4TXREG = 0x2b4
                    0x02b4                  _U4TXREG = 0x2b4
                    0x02b4                  _U4TXREGbits = 0x2b4
                    0x02b6                  U4RXREG = 0x2b6
                    0x02b6                  _U4RXREG = 0x2b6
                    0x02b6                  _U4RXREGbits = 0x2b6
                    0x02b8                  U4BRG = 0x2b8
                    0x02b8                  _U4BRG = 0x2b8
                    0x02c0                  TRISA = 0x2c0
                    0x02c0                  _TRISA = 0x2c0
                    0x02c0                  _TRISAbits = 0x2c0
                    0x02c2                  PORTA = 0x2c2
                    0x02c2                  _PORTA = 0x2c2
                    0x02c2                  _PORTAbits = 0x2c2
                    0x02c4                  LATA = 0x2c4
                    0x02c4                  _LATA = 0x2c4
                    0x02c4                  _LATAbits = 0x2c4
                    0x02c6                  ODCA = 0x2c6
                    0x02c6                  _ODCA = 0x2c6
                    0x02c6                  _ODCAbits = 0x2c6
                    0x02c8                  TRISB = 0x2c8
                    0x02c8                  _TRISB = 0x2c8
                    0x02c8                  _TRISBbits = 0x2c8
                    0x02ca                  PORTB = 0x2ca
                    0x02ca                  _PORTB = 0x2ca
                    0x02ca                  _PORTBbits = 0x2ca
                    0x02cc                  LATB = 0x2cc
                    0x02cc                  _LATB = 0x2cc
                    0x02cc                  _LATBbits = 0x2cc
                    0x02ce                  ODCB = 0x2ce
                    0x02ce                  _ODCB = 0x2ce
                    0x02ce                  _ODCBbits = 0x2ce
                    0x02d0                  TRISC = 0x2d0
                    0x02d0                  _TRISC = 0x2d0
                    0x02d0                  _TRISCbits = 0x2d0
                    0x02d2                  PORTC = 0x2d2
                    0x02d2                  _PORTC = 0x2d2
                    0x02d2                  _PORTCbits = 0x2d2
                    0x02d4                  LATC = 0x2d4
                    0x02d4                  _LATC = 0x2d4
                    0x02d4                  _LATCbits = 0x2d4
                    0x02d6                  ODCC = 0x2d6
                    0x02d6                  _ODCC = 0x2d6
                    0x02d6                  _ODCCbits = 0x2d6
                    0x02d8                  TRISD = 0x2d8
                    0x02d8                  _TRISD = 0x2d8
                    0x02d8                  _TRISDbits = 0x2d8
                    0x02da                  PORTD = 0x2da
                    0x02da                  _PORTD = 0x2da
                    0x02da                  _PORTDbits = 0x2da
                    0x02dc                  LATD = 0x2dc
                    0x02dc                  _LATD = 0x2dc
                    0x02dc                  _LATDbits = 0x2dc
                    0x02de                  ODCD = 0x2de
                    0x02de                  _ODCD = 0x2de
                    0x02de                  _ODCDbits = 0x2de
                    0x02e0                  TRISE = 0x2e0
                    0x02e0                  _TRISE = 0x2e0
                    0x02e0                  _TRISEbits = 0x2e0
                    0x02e2                  PORTE = 0x2e2
                    0x02e2                  _PORTE = 0x2e2
                    0x02e2                  _PORTEbits = 0x2e2
                    0x02e4                  LATE = 0x2e4
                    0x02e4                  _LATE = 0x2e4
                    0x02e4                  _LATEbits = 0x2e4
                    0x02e6                  ODCE = 0x2e6
                    0x02e6                  _ODCE = 0x2e6
                    0x02e6                  _ODCEbits = 0x2e6
                    0x02e8                  TRISF = 0x2e8
                    0x02e8                  _TRISF = 0x2e8
                    0x02e8                  _TRISFbits = 0x2e8
                    0x02ea                  PORTF = 0x2ea
                    0x02ea                  _PORTF = 0x2ea
                    0x02ea                  _PORTFbits = 0x2ea
                    0x02ec                  LATF = 0x2ec
                    0x02ec                  _LATF = 0x2ec
                    0x02ec                  _LATFbits = 0x2ec
                    0x02ee                  ODCF = 0x2ee
                    0x02ee                  _ODCF = 0x2ee
                    0x02ee                  _ODCFbits = 0x2ee
                    0x02f0                  TRISG = 0x2f0
                    0x02f0                  _TRISG = 0x2f0
                    0x02f0                  _TRISGbits = 0x2f0
                    0x02f2                  PORTG = 0x2f2
                    0x02f2                  _PORTG = 0x2f2
                    0x02f2                  _PORTGbits = 0x2f2
                    0x02f4                  LATG = 0x2f4
                    0x02f4                  _LATG = 0x2f4
                    0x02f4                  _LATGbits = 0x2f4
                    0x02f6                  ODCG = 0x2f6
                    0x02f6                  _ODCG = 0x2f6
                    0x02f6                  _ODCGbits = 0x2f6
                    0x02fc                  PADCFG1 = 0x2fc
                    0x02fc                  _PADCFG1 = 0x2fc
                    0x02fc                  _PADCFG1bits = 0x2fc
                    0x0300                  ADC1BUF0 = 0x300
                    0x0300                  _ADC1BUF0 = 0x300
                    0x0302                  ADC1BUF1 = 0x302
                    0x0302                  _ADC1BUF1 = 0x302
                    0x0304                  ADC1BUF2 = 0x304
                    0x0304                  _ADC1BUF2 = 0x304
                    0x0306                  ADC1BUF3 = 0x306
                    0x0306                  _ADC1BUF3 = 0x306
                    0x0308                  ADC1BUF4 = 0x308
                    0x0308                  _ADC1BUF4 = 0x308
                    0x030a                  ADC1BUF5 = 0x30a
                    0x030a                  _ADC1BUF5 = 0x30a
                    0x030c                  ADC1BUF6 = 0x30c
                    0x030c                  _ADC1BUF6 = 0x30c
                    0x030e                  ADC1BUF7 = 0x30e
                    0x030e                  _ADC1BUF7 = 0x30e
                    0x0310                  ADC1BUF8 = 0x310
                    0x0310                  _ADC1BUF8 = 0x310
                    0x0312                  ADC1BUF9 = 0x312
                    0x0312                  _ADC1BUF9 = 0x312
                    0x0314                  ADC1BUF10 = 0x314
                    0x0314                  _ADC1BUF10 = 0x314
                    0x0316                  ADC1BUF11 = 0x316
                    0x0316                  _ADC1BUF11 = 0x316
                    0x0318                  ADC1BUF12 = 0x318
                    0x0318                  _ADC1BUF12 = 0x318
                    0x031a                  ADC1BUF13 = 0x31a
                    0x031a                  _ADC1BUF13 = 0x31a
                    0x031c                  ADC1BUF14 = 0x31c
                    0x031c                  _ADC1BUF14 = 0x31c
                    0x031e                  ADC1BUF15 = 0x31e
                    0x031e                  _ADC1BUF15 = 0x31e
                    0x0320                  ADC1BUF16 = 0x320
                    0x0320                  _ADC1BUF16 = 0x320
                    0x0322                  ADC1BUF17 = 0x322
                    0x0322                  _ADC1BUF17 = 0x322
                    0x0324                  ADC1BUF18 = 0x324
                    0x0324                  _ADC1BUF18 = 0x324
                    0x0326                  ADC1BUF19 = 0x326
                    0x0326                  _ADC1BUF19 = 0x326
                    0x0328                  ADC1BUF20 = 0x328
                    0x0328                  _ADC1BUF20 = 0x328
                    0x032a                  ADC1BUF21 = 0x32a
                    0x032a                  _ADC1BUF21 = 0x32a
                    0x032c                  ADC1BUF22 = 0x32c
                    0x032c                  _ADC1BUF22 = 0x32c
                    0x032e                  ADC1BUF23 = 0x32e
                    0x032e                  _ADC1BUF23 = 0x32e
                    0x0330                  ADC1BUF24 = 0x330
                    0x0330                  _ADC1BUF24 = 0x330
                    0x0332                  ADC1BUF25 = 0x332
                    0x0332                  _ADC1BUF25 = 0x332
                    0x0340                  AD1CON1 = 0x340
                    0x0340                  _AD1CON1 = 0x340
                    0x0340                  _AD1CON1bits = 0x340
                    0x0342                  AD1CON2 = 0x342
                    0x0342                  _AD1CON2 = 0x342
                    0x0342                  _AD1CON2bits = 0x342
                    0x0344                  AD1CON3 = 0x344
                    0x0344                  _AD1CON3 = 0x344
                    0x0344                  _AD1CON3bits = 0x344
                    0x0348                  AD1CHS = 0x348
                    0x0348                  _AD1CHS = 0x348
                    0x0348                  _AD1CHSbits = 0x348
                    0x0348                  AD1CHS0 = 0x348
                    0x0348                  _AD1CHS0 = 0x348
                    0x0348                  _AD1CHS0bits = 0x348
                    0x034e                  AD1CSSH = 0x34e
                    0x034e                  _AD1CSSH = 0x34e
                    0x034e                  _AD1CSSHbits = 0x34e
                    0x0350                  AD1CSSL = 0x350
                    0x0350                  _AD1CSSL = 0x350
                    0x0350                  _AD1CSSLbits = 0x350
                    0x0352                  AD1CON4 = 0x352
                    0x0352                  _AD1CON4 = 0x352
                    0x0352                  _AD1CON4bits = 0x352
                    0x0354                  AD1CON5 = 0x354
                    0x0354                  _AD1CON5 = 0x354
                    0x0354                  _AD1CON5bits = 0x354
                    0x0356                  AD1CHITH = 0x356
                    0x0356                  _AD1CHITH = 0x356
                    0x0356                  _AD1CHITHbits = 0x356
                    0x0358                  AD1CHITL = 0x358
                    0x0358                  _AD1CHITL = 0x358
                    0x0358                  _AD1CHITLbits = 0x358
                    0x035a                  CTMUCON1 = 0x35a
                    0x035a                  _CTMUCON1 = 0x35a
                    0x035a                  _CTMUCON1bits = 0x35a
                    0x035c                  CTMUCON2 = 0x35c
                    0x035c                  _CTMUCON2 = 0x35c
                    0x035c                  _CTMUCON2bits = 0x35c
                    0x035e                  CTMUICON = 0x35e
                    0x035e                  _CTMUICON = 0x35e
                    0x035e                  _CTMUICONbits = 0x35e
                    0x0360                  AD1CTMENH = 0x360
                    0x0360                  _AD1CTMENH = 0x360
                    0x0360                  _AD1CTMENHbits = 0x360
                    0x0362                  AD1CTMENL = 0x362
                    0x0362                  _AD1CTMENL = 0x362
                    0x0362                  _AD1CTMENLbits = 0x362
                    0x0364                  AD1DMBUF = 0x364
                    0x0364                  _AD1DMBUF = 0x364
                    0x0380                  DMACON = 0x380
                    0x0380                  _DMACON = 0x380
                    0x0380                  _DMACONbits = 0x380
                    0x0382                  DMABUF = 0x382
                    0x0382                  _DMABUF = 0x382
                    0x0384                  DMAL = 0x384
                    0x0384                  _DMAL = 0x384
                    0x0386                  DMAH = 0x386
                    0x0386                  _DMAH = 0x386
                    0x0388                  DMACH0 = 0x388
                    0x0388                  _DMACH0 = 0x388
                    0x0388                  _DMACH0bits = 0x388
                    0x038a                  DMAINT0 = 0x38a
                    0x038a                  _DMAINT0 = 0x38a
                    0x038a                  _DMAINT0bits = 0x38a
                    0x038c                  DMASRC0 = 0x38c
                    0x038c                  _DMASRC0 = 0x38c
                    0x038e                  DMADST0 = 0x38e
                    0x038e                  _DMADST0 = 0x38e
                    0x0390                  DMACNT0 = 0x390
                    0x0390                  _DMACNT0 = 0x390
                    0x0392                  DMACH1 = 0x392
                    0x0392                  _DMACH1 = 0x392
                    0x0392                  _DMACH1bits = 0x392
                    0x0394                  DMAINT1 = 0x394
                    0x0394                  _DMAINT1 = 0x394
                    0x0394                  _DMAINT1bits = 0x394
                    0x0396                  DMASRC1 = 0x396
                    0x0396                  _DMASRC1 = 0x396
                    0x0398                  DMADST1 = 0x398
                    0x0398                  _DMADST1 = 0x398
                    0x039a                  DMACNT1 = 0x39a
                    0x039a                  _DMACNT1 = 0x39a
                    0x039c                  DMACH2 = 0x39c
                    0x039c                  _DMACH2 = 0x39c
                    0x039c                  _DMACH2bits = 0x39c
                    0x039e                  DMAINT2 = 0x39e
                    0x039e                  _DMAINT2 = 0x39e
                    0x039e                  _DMAINT2bits = 0x39e
                    0x03a0                  DMASRC2 = 0x3a0
                    0x03a0                  _DMASRC2 = 0x3a0
                    0x03a2                  DMADST2 = 0x3a2
                    0x03a2                  _DMADST2 = 0x3a2
                    0x03a4                  DMACNT2 = 0x3a4
                    0x03a4                  _DMACNT2 = 0x3a4
                    0x03a6                  DMACH3 = 0x3a6
                    0x03a6                  _DMACH3 = 0x3a6
                    0x03a6                  _DMACH3bits = 0x3a6
                    0x03a8                  DMAINT3 = 0x3a8
                    0x03a8                  _DMAINT3 = 0x3a8
                    0x03a8                  _DMAINT3bits = 0x3a8
                    0x03aa                  DMASRC3 = 0x3aa
                    0x03aa                  _DMASRC3 = 0x3aa
                    0x03ac                  DMADST3 = 0x3ac
                    0x03ac                  _DMADST3 = 0x3ac
                    0x03ae                  DMACNT3 = 0x3ae
                    0x03ae                  _DMACNT3 = 0x3ae
                    0x03b0                  DMACH4 = 0x3b0
                    0x03b0                  _DMACH4 = 0x3b0
                    0x03b0                  _DMACH4bits = 0x3b0
                    0x03b2                  DMAINT4 = 0x3b2
                    0x03b2                  _DMAINT4 = 0x3b2
                    0x03b2                  _DMAINT4bits = 0x3b2
                    0x03b4                  DMASRC4 = 0x3b4
                    0x03b4                  _DMASRC4 = 0x3b4
                    0x03b6                  DMADST4 = 0x3b6
                    0x03b6                  _DMADST4 = 0x3b6
                    0x03b8                  DMACNT4 = 0x3b8
                    0x03b8                  _DMACNT4 = 0x3b8
                    0x03ba                  DMACH5 = 0x3ba
                    0x03ba                  _DMACH5 = 0x3ba
                    0x03ba                  _DMACH5bits = 0x3ba
                    0x03bc                  DMAINT5 = 0x3bc
                    0x03bc                  _DMAINT5 = 0x3bc
                    0x03bc                  _DMAINT5bits = 0x3bc
                    0x03be                  DMASRC5 = 0x3be
                    0x03be                  _DMASRC5 = 0x3be
                    0x03c0                  DMADST5 = 0x3c0
                    0x03c0                  _DMADST5 = 0x3c0
                    0x03c2                  DMACNT5 = 0x3c2
                    0x03c2                  _DMACNT5 = 0x3c2
                    0x04de                  ANCFG = 0x4de
                    0x04de                  _ANCFG = 0x4de
                    0x04de                  _ANCFGbits = 0x4de
                    0x04e0                  ANSA = 0x4e0
                    0x04e0                  _ANSA = 0x4e0
                    0x04e0                  _ANSAbits = 0x4e0
                    0x04e2                  ANSB = 0x4e2
                    0x04e2                  _ANSB = 0x4e2
                    0x04e2                  _ANSBbits = 0x4e2
                    0x04e4                  ANSC = 0x4e4
                    0x04e4                  _ANSC = 0x4e4
                    0x04e4                  _ANSCbits = 0x4e4
                    0x04e6                  ANSD = 0x4e6
                    0x04e6                  _ANSD = 0x4e6
                    0x04e6                  _ANSDbits = 0x4e6
                    0x04e8                  ANSE = 0x4e8
                    0x04e8                  _ANSE = 0x4e8
                    0x04e8                  _ANSEbits = 0x4e8
                    0x04ec                  ANSG = 0x4ec
                    0x04ec                  _ANSG = 0x4ec
                    0x04ec                  _ANSGbits = 0x4ec
                    0x0580                  LCDREG = 0x580
                    0x0580                  _LCDREG = 0x580
                    0x0580                  _LCDREGbits = 0x580
                    0x0582                  LCDREF = 0x582
                    0x0582                  _LCDREF = 0x582
                    0x0582                  _LCDREFbits = 0x582
                    0x0584                  LCDCON = 0x584
                    0x0584                  _LCDCON = 0x584
                    0x0584                  _LCDCONbits = 0x584
                    0x0586                  LCDPS = 0x586
                    0x0586                  _LCDPS = 0x586
                    0x0586                  _LCDPSbits = 0x586
                    0x0588                  LCDSE0 = 0x588
                    0x0588                  _LCDSE0 = 0x588
                    0x0588                  _LCDSE0bits = 0x588
                    0x058a                  LCDSE1 = 0x58a
                    0x058a                  _LCDSE1 = 0x58a
                    0x058a                  _LCDSE1bits = 0x58a
                    0x058c                  LCDSE2 = 0x58c
                    0x058c                  _LCDSE2 = 0x58c
                    0x058c                  _LCDSE2bits = 0x58c
                    0x058e                  LCDSE3 = 0x58e
                    0x058e                  _LCDSE3 = 0x58e
                    0x058e                  _LCDSE3bits = 0x58e
                    0x0590                  LCDDATA0 = 0x590
                    0x0590                  _LCDDATA0 = 0x590
                    0x0590                  _LCDDATA0bits = 0x590
                    0x0592                  LCDDATA1 = 0x592
                    0x0592                  _LCDDATA1 = 0x592
                    0x0592                  _LCDDATA1bits = 0x592
                    0x0594                  LCDDATA2 = 0x594
                    0x0594                  _LCDDATA2 = 0x594
                    0x0594                  _LCDDATA2bits = 0x594
                    0x0596                  LCDDATA3 = 0x596
                    0x0596                  _LCDDATA3 = 0x596
                    0x0596                  _LCDDATA3bits = 0x596
                    0x0598                  LCDDATA4 = 0x598
                    0x0598                  _LCDDATA4 = 0x598
                    0x0598                  _LCDDATA4bits = 0x598
                    0x059a                  LCDDATA5 = 0x59a
                    0x059a                  _LCDDATA5 = 0x59a
                    0x059a                  _LCDDATA5bits = 0x59a
                    0x059c                  LCDDATA6 = 0x59c
                    0x059c                  _LCDDATA6 = 0x59c
                    0x059c                  _LCDDATA6bits = 0x59c
                    0x059e                  LCDDATA7 = 0x59e
                    0x059e                  _LCDDATA7 = 0x59e
                    0x059e                  _LCDDATA7bits = 0x59e
                    0x05a0                  LCDDATA8 = 0x5a0
                    0x05a0                  _LCDDATA8 = 0x5a0
                    0x05a0                  _LCDDATA8bits = 0x5a0
                    0x05a2                  LCDDATA9 = 0x5a2
                    0x05a2                  _LCDDATA9 = 0x5a2
                    0x05a2                  _LCDDATA9bits = 0x5a2
                    0x05a4                  LCDDATA10 = 0x5a4
                    0x05a4                  _LCDDATA10 = 0x5a4
                    0x05a4                  _LCDDATA10bits = 0x5a4
                    0x05a6                  LCDDATA11 = 0x5a6
                    0x05a6                  _LCDDATA11 = 0x5a6
                    0x05a6                  _LCDDATA11bits = 0x5a6
                    0x05a8                  LCDDATA12 = 0x5a8
                    0x05a8                  _LCDDATA12 = 0x5a8
                    0x05a8                  _LCDDATA12bits = 0x5a8
                    0x05aa                  LCDDATA13 = 0x5aa
                    0x05aa                  _LCDDATA13 = 0x5aa
                    0x05aa                  _LCDDATA13bits = 0x5aa
                    0x05ac                  LCDDATA14 = 0x5ac
                    0x05ac                  _LCDDATA14 = 0x5ac
                    0x05ac                  _LCDDATA14bits = 0x5ac
                    0x05ae                  LCDDATA15 = 0x5ae
                    0x05ae                  _LCDDATA15 = 0x5ae
                    0x05ae                  _LCDDATA15bits = 0x5ae
                    0x05b0                  LCDDATA16 = 0x5b0
                    0x05b0                  _LCDDATA16 = 0x5b0
                    0x05b0                  _LCDDATA16bits = 0x5b0
                    0x05b2                  LCDDATA17 = 0x5b2
                    0x05b2                  _LCDDATA17 = 0x5b2
                    0x05b2                  _LCDDATA17bits = 0x5b2
                    0x05b4                  LCDDATA18 = 0x5b4
                    0x05b4                  _LCDDATA18 = 0x5b4
                    0x05b4                  _LCDDATA18bits = 0x5b4
                    0x05b6                  LCDDATA19 = 0x5b6
                    0x05b6                  _LCDDATA19 = 0x5b6
                    0x05b6                  _LCDDATA19bits = 0x5b6
                    0x05b8                  LCDDATA20 = 0x5b8
                    0x05b8                  _LCDDATA20 = 0x5b8
                    0x05b8                  _LCDDATA20bits = 0x5b8
                    0x05ba                  LCDDATA21 = 0x5ba
                    0x05ba                  _LCDDATA21 = 0x5ba
                    0x05ba                  _LCDDATA21bits = 0x5ba
                    0x05bc                  LCDDATA22 = 0x5bc
                    0x05bc                  _LCDDATA22 = 0x5bc
                    0x05bc                  _LCDDATA22bits = 0x5bc
                    0x05be                  LCDDATA23 = 0x5be
                    0x05be                  _LCDDATA23 = 0x5be
                    0x05be                  _LCDDATA23bits = 0x5be
                    0x05c0                  LCDDATA24 = 0x5c0
                    0x05c0                  _LCDDATA24 = 0x5c0
                    0x05c0                  _LCDDATA24bits = 0x5c0
                    0x05c2                  LCDDATA25 = 0x5c2
                    0x05c2                  _LCDDATA25 = 0x5c2
                    0x05c2                  _LCDDATA25bits = 0x5c2
                    0x05c4                  LCDDATA26 = 0x5c4
                    0x05c4                  _LCDDATA26 = 0x5c4
                    0x05c4                  _LCDDATA26bits = 0x5c4
                    0x05c6                  LCDDATA27 = 0x5c6
                    0x05c6                  _LCDDATA27 = 0x5c6
                    0x05c6                  _LCDDATA27bits = 0x5c6
                    0x05c8                  LCDDATA28 = 0x5c8
                    0x05c8                  _LCDDATA28 = 0x5c8
                    0x05c8                  _LCDDATA28bits = 0x5c8
                    0x05ca                  LCDDATA29 = 0x5ca
                    0x05ca                  _LCDDATA29 = 0x5ca
                    0x05ca                  _LCDDATA29bits = 0x5ca
                    0x05cc                  LCDDATA30 = 0x5cc
                    0x05cc                  _LCDDATA30 = 0x5cc
                    0x05cc                  _LCDDATA30bits = 0x5cc
                    0x05ce                  LCDDATA31 = 0x5ce
                    0x05ce                  _LCDDATA31 = 0x5ce
                    0x05ce                  _LCDDATA31bits = 0x5ce
                    0x0600                  PMCON1 = 0x600
                    0x0600                  _PMCON1 = 0x600
                    0x0600                  _PMCON1bits = 0x600
                    0x0602                  PMCON2 = 0x602
                    0x0602                  _PMCON2 = 0x602
                    0x0602                  _PMCON2bits = 0x602
                    0x0604                  PMCON3 = 0x604
                    0x0604                  _PMCON3 = 0x604
                    0x0604                  _PMCON3bits = 0x604
                    0x0606                  PMCON4 = 0x606
                    0x0606                  _PMCON4 = 0x606
                    0x0606                  _PMCON4bits = 0x606
                    0x0608                  PMCS1CF = 0x608
                    0x0608                  _PMCS1CF = 0x608
                    0x0608                  _PMCS1CFbits = 0x608
                    0x060a                  PMCS1BS = 0x60a
                    0x060a                  _PMCS1BS = 0x60a
                    0x060a                  _PMCS1BSbits = 0x60a
                    0x060c                  PMCS1MD = 0x60c
                    0x060c                  _PMCS1MD = 0x60c
                    0x060c                  _PMCS1MDbits = 0x60c
                    0x060e                  PMCS2CF = 0x60e
                    0x060e                  _PMCS2CF = 0x60e
                    0x060e                  _PMCS2CFbits = 0x60e
                    0x0610                  PMCS2BS = 0x610
                    0x0610                  _PMCS2BS = 0x610
                    0x0610                  _PMCS2BSbits = 0x610
                    0x0612                  PMCS2MD = 0x612
                    0x0612                  _PMCS2MD = 0x612
                    0x0612                  _PMCS2MDbits = 0x612
                    0x0614                  PMDOUT1 = 0x614
                    0x0614                  _PMDOUT1 = 0x614
                    0x0616                  PMDOUT2 = 0x616
                    0x0616                  _PMDOUT2 = 0x616
                    0x0618                  PMDIN1 = 0x618
                    0x0618                  _PMDIN1 = 0x618
                    0x061a                  PMDIN2 = 0x61a
                    0x061a                  _PMDIN2 = 0x61a
                    0x061c                  PMSTAT = 0x61c
                    0x061c                  _PMSTAT = 0x61c
                    0x061c                  _PMSTATbits = 0x61c
                    0x0620                  ALRMVAL = 0x620
                    0x0620                  _ALRMVAL = 0x620
                    0x0622                  ALCFGRPT = 0x622
                    0x0622                  _ALCFGRPT = 0x622
                    0x0622                  _ALCFGRPTbits = 0x622
                    0x0624                  RTCVAL = 0x624
                    0x0624                  _RTCVAL = 0x624
                    0x0626                  RCFGCAL = 0x626
                    0x0626                  _RCFGCAL = 0x626
                    0x0626                  _RCFGCALbits = 0x626
                    0x0628                  RTCPWC = 0x628
                    0x0628                  _RTCPWC = 0x628
                    0x0628                  _RTCPWCbits = 0x628
                    0x062a                  MDCON = 0x62a
                    0x062a                  _MDCON = 0x62a
                    0x062a                  _MDCONbits = 0x62a
                    0x062c                  MDSRC = 0x62c
                    0x062c                  _MDSRC = 0x62c
                    0x062c                  _MDSRCbits = 0x62c
                    0x062e                  MDCAR = 0x62e
                    0x062e                  _MDCAR = 0x62e
                    0x062e                  _MDCARbits = 0x62e
                    0x0630                  CMSTAT = 0x630
                    0x0630                  _CMSTAT = 0x630
                    0x0630                  _CMSTATbits = 0x630
                    0x0632                  CVRCON = 0x632
                    0x0632                  _CVRCON = 0x632
                    0x0632                  _CVRCONbits = 0x632
                    0x0634                  CM1CON = 0x634
                    0x0634                  _CM1CON = 0x634
                    0x0634                  _CM1CONbits = 0x634
                    0x0636                  CM2CON = 0x636
                    0x0636                  _CM2CON = 0x636
                    0x0636                  _CM2CONbits = 0x636
                    0x0638                  CM3CON = 0x638
                    0x0638                  _CM3CON = 0x638
                    0x0638                  _CM3CONbits = 0x638
                    0x0640                  CRCCON1 = 0x640
                    0x0640                  _CRCCON1 = 0x640
                    0x0640                  _CRCCON1bits = 0x640
                    0x0642                  CRCCON2 = 0x642
                    0x0642                  _CRCCON2 = 0x642
                    0x0642                  _CRCCON2bits = 0x642
                    0x0644                  CRCXORL = 0x644
                    0x0644                  _CRCXORL = 0x644
                    0x0644                  _CRCXORLbits = 0x644
                    0x0646                  CRCXORH = 0x646
                    0x0646                  _CRCXORH = 0x646
                    0x0646                  _CRCXORHbits = 0x646
                    0x0648                  CRCDAT = 0x648
                    0x0648                  _CRCDAT = 0x648
                    0x0648                  CRCDAT32 = 0x648
                    0x0648                  _CRCDAT32 = 0x648
                    0x0648                  CRCDAT8 = 0x648
                    0x0648                  _CRCDAT8 = 0x648
                    0x0648                  CRCDATL = 0x648
                    0x0648                  _CRCDATL = 0x648
                    0x064a                  CRCDATH = 0x64a
                    0x064a                  _CRCDATH = 0x64a
                    0x064c                  CRCWDATL = 0x64c
                    0x064c                  _CRCWDATL = 0x64c
                    0x064e                  CRCWDATH = 0x64e
                    0x064e                  _CRCWDATH = 0x64e
                    0x0680                  RPINR0 = 0x680
                    0x0680                  _RPINR0 = 0x680
                    0x0680                  _RPINR0bits = 0x680
                    0x0682                  RPINR1 = 0x682
                    0x0682                  _RPINR1 = 0x682
                    0x0682                  _RPINR1bits = 0x682
                    0x0684                  RPINR2 = 0x684
                    0x0684                  _RPINR2 = 0x684
                    0x0684                  _RPINR2bits = 0x684
                    0x0686                  RPINR3 = 0x686
                    0x0686                  _RPINR3 = 0x686
                    0x0686                  _RPINR3bits = 0x686
                    0x0688                  RPINR4 = 0x688
                    0x0688                  _RPINR4 = 0x688
                    0x0688                  _RPINR4bits = 0x688
                    0x068e                  RPINR7 = 0x68e
                    0x068e                  _RPINR7 = 0x68e
                    0x068e                  _RPINR7bits = 0x68e
                    0x0690                  RPINR8 = 0x690
                    0x0690                  _RPINR8 = 0x690
                    0x0690                  _RPINR8bits = 0x690
                    0x0692                  RPINR9 = 0x692
                    0x0692                  _RPINR9 = 0x692
                    0x0692                  _RPINR9bits = 0x692
                    0x0694                  RPINR10 = 0x694
                    0x0694                  _RPINR10 = 0x694
                    0x0694                  _RPINR10bits = 0x694
                    0x0696                  RPINR11 = 0x696
                    0x0696                  _RPINR11 = 0x696
                    0x0696                  _RPINR11bits = 0x696
                    0x06a2                  RPINR17 = 0x6a2
                    0x06a2                  _RPINR17 = 0x6a2
                    0x06a2                  _RPINR17bits = 0x6a2
                    0x06a4                  RPINR18 = 0x6a4
                    0x06a4                  _RPINR18 = 0x6a4
                    0x06a4                  _RPINR18bits = 0x6a4
                    0x06a6                  RPINR19 = 0x6a6
                    0x06a6                  _RPINR19 = 0x6a6
                    0x06a6                  _RPINR19bits = 0x6a6
                    0x06a8                  RPINR20 = 0x6a8
                    0x06a8                  _RPINR20 = 0x6a8
                    0x06a8                  _RPINR20bits = 0x6a8
                    0x06aa                  RPINR21 = 0x6aa
                    0x06aa                  _RPINR21 = 0x6aa
                    0x06aa                  _RPINR21bits = 0x6aa
                    0x06ac                  RPINR22 = 0x6ac
                    0x06ac                  _RPINR22 = 0x6ac
                    0x06ac                  _RPINR22bits = 0x6ac
                    0x06ae                  RPINR23 = 0x6ae
                    0x06ae                  _RPINR23 = 0x6ae
                    0x06ae                  _RPINR23bits = 0x6ae
                    0x06b6                  RPINR27 = 0x6b6
                    0x06b6                  _RPINR27 = 0x6b6
                    0x06b6                  _RPINR27bits = 0x6b6
                    0x06bc                  RPINR30 = 0x6bc
                    0x06bc                  _RPINR30 = 0x6bc
                    0x06bc                  _RPINR30bits = 0x6bc
                    0x06be                  RPINR31 = 0x6be
                    0x06be                  _RPINR31 = 0x6be
                    0x06be                  _RPINR31bits = 0x6be
                    0x06c0                  RPOR0 = 0x6c0
                    0x06c0                  _RPOR0 = 0x6c0
                    0x06c0                  _RPOR0bits = 0x6c0
                    0x06c2                  RPOR1 = 0x6c2
                    0x06c2                  _RPOR1 = 0x6c2
                    0x06c2                  _RPOR1bits = 0x6c2
                    0x06c4                  RPOR2 = 0x6c4
                    0x06c4                  _RPOR2 = 0x6c4
                    0x06c4                  _RPOR2bits = 0x6c4
                    0x06c6                  RPOR3 = 0x6c6
                    0x06c6                  _RPOR3 = 0x6c6
                    0x06c6                  _RPOR3bits = 0x6c6
                    0x06c8                  RPOR4 = 0x6c8
                    0x06c8                  _RPOR4 = 0x6c8
                    0x06c8                  _RPOR4bits = 0x6c8
                    0x06ca                  RPOR5 = 0x6ca
                    0x06ca                  _RPOR5 = 0x6ca
                    0x06ca                  _RPOR5bits = 0x6ca
                    0x06cc                  RPOR6 = 0x6cc
                    0x06cc                  _RPOR6 = 0x6cc
                    0x06cc                  _RPOR6bits = 0x6cc
                    0x06ce                  RPOR7 = 0x6ce
                    0x06ce                  _RPOR7 = 0x6ce
                    0x06ce                  _RPOR7bits = 0x6ce
                    0x06d0                  RPOR8 = 0x6d0
                    0x06d0                  _RPOR8 = 0x6d0
                    0x06d0                  _RPOR8bits = 0x6d0
                    0x06d2                  RPOR9 = 0x6d2
                    0x06d2                  _RPOR9 = 0x6d2
                    0x06d2                  _RPOR9bits = 0x6d2
                    0x06d4                  RPOR10 = 0x6d4
                    0x06d4                  _RPOR10 = 0x6d4
                    0x06d4                  _RPOR10bits = 0x6d4
                    0x06d6                  RPOR11 = 0x6d6
                    0x06d6                  _RPOR11 = 0x6d6
                    0x06d6                  _RPOR11bits = 0x6d6
                    0x06d8                  RPOR12 = 0x6d8
                    0x06d8                  _RPOR12 = 0x6d8
                    0x06d8                  _RPOR12bits = 0x6d8
                    0x06da                  RPOR13 = 0x6da
                    0x06da                  _RPOR13 = 0x6da
                    0x06da                  _RPOR13bits = 0x6da
                    0x06dc                  RPOR14 = 0x6dc
                    0x06dc                  _RPOR14 = 0x6dc
                    0x06dc                  _RPOR14bits = 0x6dc
                    0x06de                  RPOR15 = 0x6de
                    0x06de                  _RPOR15 = 0x6de
                    0x06de                  _RPOR15bits = 0x6de
                    0x0740                  RCON = 0x740
                    0x0740                  _RCON = 0x740
                    0x0740                  _RCONbits = 0x740
                    0x0742                  OSCCON = 0x742
                    0x0742                  _OSCCON = 0x742
                    0x0742                  _OSCCONbits = 0x742
                    0x0742                  OSCCONL = 0x742
                    0x0742                  _OSCCONL = 0x742
                    0x0743                  OSCCONH = 0x743
                    0x0743                  _OSCCONH = 0x743
                    0x0744                  CLKDIV = 0x744
                    0x0744                  _CLKDIV = 0x744
                    0x0744                  _CLKDIVbits = 0x744
                    0x0748                  OSCTUN = 0x748
                    0x0748                  _OSCTUN = 0x748
                    0x0748                  _OSCTUNbits = 0x748
                    0x074e                  REFOCON = 0x74e
                    0x074e                  _REFOCON = 0x74e
                    0x074e                  _REFOCONbits = 0x74e
                    0x0756                  HLVDCON = 0x756
                    0x0756                  _HLVDCON = 0x756
                    0x0756                  _HLVDCONbits = 0x756
                    0x0758                  DSCON = 0x758
                    0x0758                  _DSCON = 0x758
                    0x0758                  _DSCONbits = 0x758
                    0x075a                  DSWAKE = 0x75a
                    0x075a                  _DSWAKE = 0x75a
                    0x075a                  _DSWAKEbits = 0x75a
                    0x075c                  DSGPR0 = 0x75c
                    0x075c                  _DSGPR0 = 0x75c
                    0x075e                  DSGPR1 = 0x75e
                    0x075e                  _DSGPR1 = 0x75e
                    0x0760                  NVMCON = 0x760
                    0x0760                  _NVMCON = 0x760
                    0x0760                  _NVMCONbits = 0x760
                    0x0762                  RCON2 = 0x762
                    0x0762                  _RCON2 = 0x762
                    0x0762                  _RCON2bits = 0x762
                    0x0766                  NVMKEY = 0x766
                    0x0766                  _NVMKEY = 0x766
                    0x0770                  PMD1 = 0x770
                    0x0770                  _PMD1 = 0x770
                    0x0770                  _PMD1bits = 0x770
                    0x0772                  PMD2 = 0x772
                    0x0772                  _PMD2 = 0x772
                    0x0772                  _PMD2bits = 0x772
                    0x0774                  PMD3 = 0x774
                    0x0774                  _PMD3 = 0x774
                    0x0774                  _PMD3bits = 0x774
                    0x0776                  PMD4 = 0x776
                    0x0776                  _PMD4 = 0x776
                    0x0776                  _PMD4bits = 0x776
                    0x077a                  PMD6 = 0x77a
                    0x077a                  _PMD6 = 0x77a
                    0x077a                  _PMD6bits = 0x77a
                    0x077c                  PMD7 = 0x77c
                    0x077c                  _PMD7 = 0x77c
                    0x077c                  _PMD7bits = 0x77c
                    0x0144                  IC1 = 0x144
                    0x0144                  _IC1 = 0x144
                    0x014c                  IC2 = 0x14c
                    0x014c                  _IC2 = 0x14c
                    0x0154                  IC3 = 0x154
                    0x0154                  _IC3 = 0x154
                    0x015c                  IC4 = 0x15c
                    0x015c                  _IC4 = 0x15c
                    0x0164                  IC5 = 0x164
                    0x0164                  _IC5 = 0x164
                    0x016c                  IC6 = 0x16c
                    0x016c                  _IC6 = 0x16c
                    0x0174                  IC7 = 0x174
                    0x0174                  _IC7 = 0x174
                    0x0194                  OC1 = 0x194
                    0x0194                  _OC1 = 0x194
                    0x019e                  OC2 = 0x19e
                    0x019e                  _OC2 = 0x19e
                    0x01a8                  OC3 = 0x1a8
                    0x01a8                  _OC3 = 0x1a8
                    0x01b2                  OC4 = 0x1b2
                    0x01b2                  _OC4 = 0x1b2
                    0x01bc                  OC5 = 0x1bc
                    0x01bc                  _OC5 = 0x1bc
                    0x01c6                  OC6 = 0x1c6
                    0x01c6                  _OC6 = 0x1c6
                    0x01d0                  OC7 = 0x1d0
                    0x01d0                  _OC7 = 0x1d0
                    0x0240                  SPI1 = 0x240
                    0x0240                  _SPI1 = 0x240
                    0x0260                  SPI2 = 0x260
                    0x0260                  _SPI2 = 0x260
                    0x0220                  UART1 = 0x220
                    0x0220                  _UART1 = 0x220
                    0x0230                  UART2 = 0x230
                    0x0230                  _UART2 = 0x230
START GROUP
LOAD c:/program files (x86)/microchip/xc16/v1.32/bin/bin/../../lib\liblega-pic30-elf.a
LOAD c:/program files (x86)/microchip/xc16/v1.32/bin/bin/../../lib\libm-elf.a
LOAD c:/program files (x86)/microchip/xc16/v1.32/bin/bin/../../lib\liblega-c-elf.a
END GROUP
OUTPUT(dist/default/production/cs66b-redo.production.elf elf32-pic30)
LOAD jump_table
LOAD default_isr
LOAD data_init

.debug_pubtypes
                  0x000300       0x17d7
 .debug_pubtypes
                  0x000300         0xc2 build/default/production/mcc_generated_files/rtcc.o
 .debug_pubtypes
                  0x0003c2         0x98 build/default/production/mcc_generated_files/pin_manager.o
 .debug_pubtypes
                  0x00045a         0xe1 build/default/production/mcc_generated_files/interrupt_manager.o
 .debug_pubtypes
                  0x00053b         0x1e build/default/production/mcc_generated_files/mcc.o
 .debug_pubtypes
                  0x000559         0xa4 build/default/production/mcc_generated_files/tmr2.o
 .debug_pubtypes
                  0x0005fd         0xa4 build/default/production/mcc_generated_files/tmr1.o
 .debug_pubtypes
                  0x0006a1         0x4e build/default/production/mcc_generated_files/traps.o
 .debug_pubtypes
                  0x0006ef        0x113 build/default/production/mcc_generated_files/uart2.o
 .debug_pubtypes
                  0x000802        0x113 build/default/production/mcc_generated_files/uart1.o
 .debug_pubtypes
                  0x000915         0xcb build/default/production/mcc_generated_files/adc1.o
 .debug_pubtypes
                  0x0009e0        0x188 build/default/production/src/api/ui.o
 .debug_pubtypes
                  0x000b68        0x1ce build/default/production/src/api/key_menu.o
 .debug_pubtypes
                  0x000d36        0x1d3 build/default/production/src/api/sysdata.o
 .debug_pubtypes
                  0x000f09        0x16c build/default/production/src/api/modbus.o
 .debug_pubtypes
                  0x001075         0x12 build/default/production/src/api/gps.o
 .debug_pubtypes
                  0x001087         0xa1 build/default/production/src/api/nbiot.o
 .debug_pubtypes
                  0x001128        0x15a build/default/production/src/app/main.o
 .debug_pubtypes
                  0x001282         0x2b build/default/production/src/app/event.o
 .debug_pubtypes
                  0x0012ad        0x253 build/default/production/src/app/sample.o
 .debug_pubtypes
                  0x001500         0x2b build/default/production/src/depend/crc16.o
 .debug_pubtypes
                  0x00152b         0x50 build/default/production/src/depend/m_string.o
 .debug_pubtypes
                  0x00157b         0xe7 build/default/production/src/driver/lcd.o
 .debug_pubtypes
                  0x001662         0x40 build/default/production/src/driver/gpio.o
 .debug_pubtypes
                  0x0016a2        0x123 build/default/production/src/driver/ads1148.o
 .debug_pubtypes
                  0x0017c5         0x2b build/default/production/src/driver/ads1148_hal.o
 .debug_pubtypes
                  0x0017f0         0x52 build/default/production/src/driver/ex_eeprom.o
 .debug_pubtypes
                  0x001842         0x29 build/default/production/src/driver/i2c.o
 .debug_pubtypes
                  0x00186b         0xe1 build/default/production/src/driver/key.o
 .debug_pubtypes
                  0x00194c         0x47 build/default/production/src/driver/ad421.o
 .debug_pubtypes
                  0x001993         0x1f build/default/production/src/global/globle.o
 .debug_pubtypes
                  0x0019b2         0x1f build/default/production/src/soc/delay.o
 .debug_pubtypes
                  0x0019d1         0x72 build/default/production/src/soc/ticker.o
 .debug_pubtypes
                  0x001a43         0x51 build/default/production/src/soc/flash.o
 .debug_pubtypes
                  0x001a94         0x43 build/default/production/src/api/at-cmd.o

__c30_signature
                  0x001ad7        0x156
 __c30_signature
                  0x001ad7          0x6 build/default/production/mcc_generated_files/rtcc.o
 __c30_signature
                  0x001add          0x6 build/default/production/mcc_generated_files/pin_manager.o
 __c30_signature
                  0x001ae3          0x6 build/default/production/mcc_generated_files/interrupt_manager.o
 __c30_signature
                  0x001ae9          0x6 build/default/production/mcc_generated_files/mcc.o
 __c30_signature
                  0x001aef          0x6 build/default/production/mcc_generated_files/tmr2.o
 __c30_signature
                  0x001af5          0x6 build/default/production/mcc_generated_files/tmr1.o
 __c30_signature
                  0x001afb          0x6 build/default/production/mcc_generated_files/traps.o
 __c30_signature
                  0x001b01          0x6 build/default/production/mcc_generated_files/uart2.o
 __c30_signature
                  0x001b07          0x6 build/default/production/mcc_generated_files/uart1.o
 __c30_signature
                  0x001b0d          0x6 build/default/production/mcc_generated_files/adc1.o
 __c30_signature
                  0x001b13          0x6 build/default/production/src/api/ui.o
 __c30_signature
                  0x001b19          0x6 build/default/production/src/api/key_menu.o
 __c30_signature
                  0x001b1f          0x6 build/default/production/src/api/sysdata.o
 __c30_signature
                  0x001b25          0x6 build/default/production/src/api/modbus.o
 __c30_signature
                  0x001b2b          0x6 build/default/production/src/api/gps.o
 __c30_signature
                  0x001b31          0x6 build/default/production/src/api/nbiot.o
 __c30_signature
                  0x001b37          0x6 build/default/production/src/app/main.o
 __c30_signature
                  0x001b3d          0x6 build/default/production/src/app/event.o
 __c30_signature
                  0x001b43          0x6 build/default/production/src/app/sample.o
 __c30_signature
                  0x001b49          0x6 build/default/production/src/depend/crc16.o
 __c30_signature
                  0x001b4f          0x6 build/default/production/src/depend/m_string.o
 __c30_signature
                  0x001b55          0x6 build/default/production/src/driver/lcd.o
 __c30_signature
                  0x001b5b          0x6 build/default/production/src/driver/gpio.o
 __c30_signature
                  0x001b61          0x6 build/default/production/src/driver/ads1148.o
 __c30_signature
                  0x001b67          0x6 build/default/production/src/driver/ads1148_hal.o
 __c30_signature
                  0x001b6d          0x6 build/default/production/src/driver/ex_eeprom.o
 __c30_signature
                  0x001b73          0x6 build/default/production/src/driver/i2c.o
 __c30_signature
                  0x001b79          0x6 build/default/production/src/driver/key.o
 __c30_signature
                  0x001b7f          0x6 build/default/production/src/driver/ad421.o
 __c30_signature
                  0x001b85          0x6 build/default/production/src/global/globle.o
 __c30_signature
                  0x001b8b          0x6 build/default/production/src/soc/delay.o
 __c30_signature
                  0x001b91          0x6 build/default/production/src/soc/ticker.o
 __c30_signature
                  0x001b97          0x6 build/default/production/src/soc/flash.o
 __c30_signature
                  0x001b9d          0x6 build/default/production/src/api/at-cmd.o
 __c30_signature
                  0x001ba3          0x6 c:/program files (x86)/microchip/xc16/v1.32/bin/bin/../../lib\liblega-pic30-elf.a(crt0_extended24.o)
 __c30_signature
                  0x001ba9          0x6 c:/program files (x86)/microchip/xc16/v1.32/bin/bin/../../lib\liblega-pic30-elf.a(data_init_24.o)
 __c30_signature
                  0x001baf          0x6 c:/program files (x86)/microchip/xc16/v1.32/bin/bin/../../lib\libm-elf.a(addsf3.daeo)
 __c30_signature
                  0x001bb5          0x6 c:/program files (x86)/microchip/xc16/v1.32/bin/bin/../../lib\libm-elf.a(divsf3.daeo)
 __c30_signature
                  0x001bbb          0x6 c:/program files (x86)/microchip/xc16/v1.32/bin/bin/../../lib\libm-elf.a(divsi3.daeo)
 __c30_signature
                  0x001bc1          0x6 c:/program files (x86)/microchip/xc16/v1.32/bin/bin/../../lib\libm-elf.a(feqltle.daeo)
 __c30_signature
                  0x001bc7          0x6 c:/program files (x86)/microchip/xc16/v1.32/bin/bin/../../lib\libm-elf.a(fgtge.daeo)
 __c30_signature
                  0x001bcd          0x6 c:/program files (x86)/microchip/xc16/v1.32/bin/bin/../../lib\libm-elf.a(fixsfsi.daeo)
 __c30_signature
                  0x001bd3          0x6 c:/program files (x86)/microchip/xc16/v1.32/bin/bin/../../lib\libm-elf.a(fixunssfsi.daeo)
 __c30_signature
                  0x001bd9          0x6 c:/program files (x86)/microchip/xc16/v1.32/bin/bin/../../lib\libm-elf.a(floatsisf.daeo)
 __c30_signature
                  0x001bdf          0x6 c:/program files (x86)/microchip/xc16/v1.32/bin/bin/../../lib\libm-elf.a(floatunsisf.daeo)
 __c30_signature
                  0x001be5          0x6 c:/program files (x86)/microchip/xc16/v1.32/bin/bin/../../lib\libm-elf.a(fne.daeo)
 __c30_signature
                  0x001beb          0x6 c:/program files (x86)/microchip/xc16/v1.32/bin/bin/../../lib\libm-elf.a(fpack.daeo)
 __c30_signature
                  0x001bf1          0x6 c:/program files (x86)/microchip/xc16/v1.32/bin/bin/../../lib\libm-elf.a(funpack.daeo)
 __c30_signature
                  0x001bf7          0x6 c:/program files (x86)/microchip/xc16/v1.32/bin/bin/../../lib\libm-elf.a(funpack2.daeo)
 __c30_signature
                  0x001bfd          0x6 c:/program files (x86)/microchip/xc16/v1.32/bin/bin/../../lib\libm-elf.a(futil.daeo)
 __c30_signature
                  0x001c03          0x6 c:/program files (x86)/microchip/xc16/v1.32/bin/bin/../../lib\libm-elf.a(modsi3.daeo)
 __c30_signature
                  0x001c09          0x6 c:/program files (x86)/microchip/xc16/v1.32/bin/bin/../../lib\libm-elf.a(mulsf3.daeo)
 __c30_signature
                  0x001c0f          0x6 c:/program files (x86)/microchip/xc16/v1.32/bin/bin/../../lib\libm-elf.a(udivsi3.daeo)
 __c30_signature
                  0x001c15          0x6 c:/program files (x86)/microchip/xc16/v1.32/bin/bin/../../lib\libm-elf.a(umodsi3.daeo)
 __c30_signature
                  0x001c1b          0x6 c:/program files (x86)/microchip/xc16/v1.32/bin/bin/../../lib\libm-elf.a(fcompare.daeo)
 __c30_signature
                  0x001c21          0x6 c:/program files (x86)/microchip/xc16/v1.32/bin/bin/../../lib\libm-elf.a(floatdisf.daeo)
 __c30_signature
                  0x001c27          0x6 c:/program files (x86)/microchip/xc16/v1.32/bin/bin/../../lib\libm-elf.a(floatundisf.daeo)

.nbss               0x0800        0x10a
 .nbss              0x0800         0x8c build/default/production/src/api/sysdata.o
                    0x0800                  _diffPrCalibDataObj
                    0x0804                  _prPrCalibDataObj
                    0x0808                  _ex0PrCalibDataObj
                    0x080c                  _ex1PrCalibDataObj
                    0x0810                  _x_prDiffData
                    0x0818                  _x_prData
                    0x0820                  _x_ex0prData
                    0x0828                  _x_ex1prData
                    0x0830                  _adc_diffPr
                    0x0832                  _adc_bridgeTemp
                    0x0834                  _adc_inPt100
                    0x0836                  _adc_pressure
                    0x0838                  _adc_exPt100
                    0x083a                  _adc_iPrEx
                    0x083e                  _adc_iPrEx0
                    0x0840                  _adc_iPrEx1
                    0x0842                  _adc_ibat
                    0x0844                  _adc_iRef
                    0x0846                  _rtDiffPressure
                    0x084a                  _rtHightOriginal
                    0x084e                  _rtHight
                    0x0852                  _rtWeight
                    0x0856                  _rtVolume
                    0x085a                  _rtLevel
                    0x085c                  _rtTemperatureIn
                    0x0860                  _rtPressure
                    0x0864                  _rtTemperatureEx0
                    0x0868                  _rtTemperatureEx1
                    0x086c                  _rtEx0Pressure
                    0x0870                  _rtEx1Pressure
                    0x0874                  _rtDiffPrOriginal
                    0x0878                  _rtPrOriginal
                    0x087c                  _rtEx0PrOriginal
                    0x0880                  _rtEx1PrOriginal
                    0x0884                  _dwm
                    0x0886                  _modifyPolyCeofficTimer
                    0x0888                  _deviceEvent
 .nbss              0x088c         0x2c build/default/production/src/app/sample.o
                    0x088c                  _sampleFreashFlg
                    0x088d                  _sampleIndex
                    0x088e                  _rtAdcValueDPrBridge
                    0x0890                  _rtAdcValueDPrSignal
                    0x0892                  _rtAdcValuePrBridge
                    0x0894                  _rtAdcValuePrSignal
                    0x0896                  _rtAdcValueTemperatureIn
                    0x0898                  _rtAdcValueChip0Ref0
                    0x089a                  _rtAdcValueChip0Ref1
                    0x089c                  _rtAdcValuePrEx0Signal
                    0x089e                  _rtAdcValuePrEx1Signal
                    0x08a0                  _rtAdcValueTemperatureEx0A
                    0x08a2                  _rtAdcValueTemperatureEx0B
                    0x08a4                  _rtAdcValueTemperatureEx1A
                    0x08a6                  _rtAdcValueTemperatureEx1B
                    0x08a8                  _rtTempRes0
                    0x08ac                  _rtTempRes1
                    0x08b0                  _rtValueBat
                    0x08b2                  _batLevel
                    0x08b4                  _rtValueSolor
                    0x08b6                  _solorLevel
 .nbss              0x08b8         0x1a build/default/production/src/api/key_menu.o
                    0x08b8                  _paramChangedFlag
                    0x08ba                  _passWord
                    0x08bc                  _menu
                    0x08bd                  _subMenu
                    0x08be                  _adjLocation
                    0x08c0                  _adjValue
                    0x08c4                  _tmpAdjValue
                    0x08c8                  _m_floatAdj
                    0x08cc                  _pAdjValue
                    0x08ce                  _calibRow
                    0x08cf                  _calibCol
                    0x08d0                  _noOporatTime
 .nbss              0x08d2         0x10 build/default/production/src/driver/ad421.o
                    0x08d2                  _ad421ObjChip0
                    0x08da                  _ad421ObjChip1
 .nbss              0x08e2          0xe build/default/production/src/api/nbiot.o
                    0x08e2                  _pAtCmd
                    0x08e4                  _recTimerSec
                    0x08e8                  _atCmdSm
                    0x08ea                  _nbRecLen
                    0x08ec                  _rssi
                    0x08ee                  _nbPsmStateMachine
 .nbss              0x08f0          0xe build/default/production/src/soc/ticker.o
                    0x08f0                  _tickerMs
                    0x08f4                  _tickerSec
                    0x08f8                  _tickerMsPer10Ms
                    0x08fc                  _timerUsedFlg
 .nbss              0x08fe          0xc build/default/production/src/global/globle.o
                    0x08fe                  _globleTickerMs
                    0x0902                  _globleTickerSec
                    0x0906                  _globleHalfSec

.ndata              0x090a          0x8
 .ndata             0x090a          0x8 build/default/production/src/app/main.o
                    0x090a                  _lcdOnTime
                    0x090c                  _blShowTime
                    0x090e                  _sleepSec
                    0x0910                  _sampling

.nbss               0x0912          0xe
 .nbss              0x0912          0x6 build/default/production/src/soc/flash.o
                    0x0912                  _flashOffsetAddr
                    0x0914                  _flashByteTemp
                    0x0916                  _sh_SR
 .nbss              0x0918          0x4 build/default/production/mcc_generated_files/uart2.o
                    0x0918                  _uart2ReceivedCount
                    0x091a                  _uart2RecIdleTime
 .nbss              0x091c          0x4 build/default/production/mcc_generated_files/uart1.o
                    0x091c                  _uart1ReceivedCount
                    0x091e                  _uart1RecIdleTime

.ndata              0x0920          0x4
 .ndata             0x0920          0x4 build/default/production/src/api/sysdata.o
                    0x0920                  _hardStatus

.nbss               0x0924          0xc
 .nbss              0x0924          0x4 build/default/production/src/app/event.o
                    0x0924                  _event
                    0x0926                  _keyEventCount
 .nbss              0x0928          0x4 build/default/production/src/driver/gpio.o
                    0x0928                  _lcdBlackNightOn
                    0x0929                  _kzAvddOn
                    0x092a                  _exFunctionSta
 .nbss              0x092c          0x2 build/default/production/mcc_generated_files/rtcc.o
 .nbss              0x092e          0x2 build/default/production/mcc_generated_files/tmr2.o
                    0x092e                  _tmr2Run

.ndata              0x0930          0x2
 .ndata             0x0930          0x2 build/default/production/mcc_generated_files/traps.o

.nbss               0x0932          0x6
 .nbss              0x0932          0x2 build/default/production/mcc_generated_files/adc1.o
 .nbss              0x0934          0x2 build/default/production/src/api/ui.o
                    0x0934                  _lcdTwinkle
 .nbss              0x0936          0x2 build/default/production/src/app/main.o
                    0x0936                  _dispIndex

.ndata              0x0938          0x4
 .ndata             0x0938          0x2 build/default/production/src/app/event.o
                    0x0938                  _noEventTimeOut
 .ndata             0x093a          0x2 build/default/production/src/app/sample.o
                    0x093a                  _firstSampleFlg

.nbss               0x093c          0x4
 .nbss              0x093c          0x2 build/default/production/src/driver/ads1148.o
                    0x093c                  _allAds1148PinsSta
 .nbss              0x093e          0x2 build/default/production/src/driver/key.o
                    0x093e                  _keyValue
                    0x093f                  _tmpKeyValue

.bss                0x0940        0x7a8
 .bss               0x0940        0x59a build/default/production/src/api/sysdata.o
                    0x0940                  _stSysData
                    0x0a92                  _globleBuffer
                    0x0b92                  _calibTab0
                    0x0c50                  _calibTab1
                    0x0d0e                  _calibTab2
                    0x0dcc                  _calibTab3
                    0x0e8a                  _rtTemperatureInBuf
                    0x0e9a                  _rtDiffPrBuf
                    0x0eaa                  _tmpx
 .bss               0x0eda         0x80 build/default/production/src/app/sample.o
                    0x0eda                  _samlpeBuf
 .bss               0x0f5a         0x76 build/default/production/src/api/nbiot.o
                    0x0f5a                  _nbRecBuf
                    0x0f9a                  _CIMI
                    0x0faa                  _CGSN
                    0x0fba                  _ICCID
 .bss               0x0fd0         0x64 build/default/production/src/driver/ads1148.o
                    0x0fd0                  _ads1148Chip0
                    0x1002                  _ads1148Chip1
 .bss               0x1034         0x5a build/default/production/mcc_generated_files/uart2.o
                    0x104e                  _uart2ReceivedBuf
 .bss               0x108e         0x5a build/default/production/mcc_generated_files/uart1.o
                    0x10a8                  _uart1ReceivedBuf

.data               0x10e8         0x4c
 .data              0x10e8         0x4c build/default/production/src/app/main.o
                    0x10e8                  _uartTestStr

.bss                0x1134         0xa4
 .bss               0x1134         0x40 build/default/production/src/driver/lcd.o
                    0x1134                  _pLCD
 .bss               0x1174         0x40 build/default/production/src/driver/ex_eeprom.o
                    0x1174                  _at24c02Obj0
                    0x1184                  _at24c02Obj1
                    0x1194                  _at24c02Obj2
                    0x11a4                  _at24c02Obj3
 .bss               0x11b4         0x20 build/default/production/mcc_generated_files/traps.o
 .bss               0x11d4          0x2 build/default/production/mcc_generated_files/tmr2.o
 .bss               0x11d6          0x2 build/default/production/mcc_generated_files/tmr1.o

.config_JTAGEN    0x0157fe          0x2
 .config_JTAGEN
                  0x0157fe          0x2 build/default/production/mcc_generated_files/mcc.o

.config_IESO      0x0157fc          0x2
 .config_IESO     0x0157fc          0x2 build/default/production/mcc_generated_files/mcc.o

.config_WPEND     0x0157fa          0x2
 .config_WPEND    0x0157fa          0x2 build/default/production/mcc_generated_files/mcc.o

.config_DSSWEN    0x0157f8          0x2
 .config_DSSWEN
                  0x0157f8          0x2 build/default/production/mcc_generated_files/mcc.o

.ivt._T2Interrupt
                  0x000022          0x2
 .ivt._T2Interrupt
                  0x000022          0x2 build/default/production/mcc_generated_files/tmr2.o

.ivt._T1Interrupt
                  0x00001a          0x2
 .ivt._T1Interrupt
                  0x00001a          0x2 build/default/production/mcc_generated_files/tmr1.o

.ivt._OscillatorFail
                  0x000006          0x2
 .ivt._OscillatorFail
                  0x000006          0x2 build/default/production/mcc_generated_files/traps.o

.ivt._StackError
                  0x00000a          0x2
 .ivt._StackError
                  0x00000a          0x2 build/default/production/mcc_generated_files/traps.o

.ivt._AddressError
                  0x000008          0x2
 .ivt._AddressError
                  0x000008          0x2 build/default/production/mcc_generated_files/traps.o

.ivt._MathError
                  0x00000c          0x2
 .ivt._MathError
                  0x00000c          0x2 build/default/production/mcc_generated_files/traps.o

.ivt._U2TXInterrupt
                  0x000052          0x2
 .ivt._U2TXInterrupt
                  0x000052          0x2 build/default/production/mcc_generated_files/uart2.o

.ivt._U2RXInterrupt
                  0x000050          0x2
 .ivt._U2RXInterrupt
                  0x000050          0x2 build/default/production/mcc_generated_files/uart2.o

.ivt._U2ErrInterrupt
                  0x000098          0x2
 .ivt._U2ErrInterrupt
                  0x000098          0x2 build/default/production/mcc_generated_files/uart2.o

.ivt._U1TXInterrupt
                  0x00002c          0x2
 .ivt._U1TXInterrupt
                  0x00002c          0x2 build/default/production/mcc_generated_files/uart1.o

.ivt._U1RXInterrupt
                  0x00002a          0x2
 .ivt._U1RXInterrupt
                  0x00002a          0x2 build/default/production/mcc_generated_files/uart1.o

.ivt._U1ErrInterrupt
                  0x000096          0x2
 .ivt._U1ErrInterrupt
                  0x000096          0x2 build/default/production/mcc_generated_files/uart1.o

.ivt._ADC1Interrupt
                  0x00002e          0x2
 .ivt._ADC1Interrupt
                  0x00002e          0x2 build/default/production/mcc_generated_files/adc1.o

.ivt._CNInterrupt
                  0x00003a          0x2
 .ivt._CNInterrupt
                  0x00003a          0x2 build/default/production/src/driver/key.o

.ivt._RTCCInterrupt
                  0x000090          0x2
 .ivt._RTCCInterrupt
                  0x000090          0x2 build/default/production/src/soc/ticker.o

.const              0x8988       0x1280 load address 0x000988  
 .const             0x8988        0xabe build/default/production/src/api/sysdata.o
                    0x8988                  _hKcy
                    0x8b1c                  _hKel
                    0x8cb0                  _pt100ResTempTable
                    0x92f4                  _defultSystemData
 .const             0x9446        0x314 build/default/production/src/api/at-cmd.o
                    0x9452                  _AT_CMD_AT
                    0x945e                  _AT_CMD_ATI
                    0x9472                  _AT_CMD_QSECSWT
                    0x9488                  _AT_CMD_QSECSWT_S
                    0x94a4                  _AT_CMD_CFUN_0
                    0x94c6                  _AT_CMD_CFUN_R
                    0x94d8                  _AT_CMD_CFUN
                    0x94ea                  _AT_CMD_CMEE
                    0x9506                  _AT_CMD_NRB
                    0x9516                  _AT_CMD_CMI
                    0x9528                  _AT_CMD_CGSN
                    0x953c                  _AT_CMD_NUESTATS
                    0x954e                  _AT_CMD_NBAND_R
                    0x9570                  _AT_CMD_CGDCONT
                    0x9592                  _AT_CMD_CGDCONT_COAP
                    0x95b4                  _AT_CMD_CGDCONT_R
                    0x95c8                  _AT_CMD_CGATT
                    0x95e8                  _AT_CMD_CGATT_R
                    0x960c                  _AT_CMD_CGATT_R_COAP
                    0x961c                  _AT_CMD_CSQ
                    0x963a                  _AT_CMD_CEREG_R
                    0x9656                  _AT_CMD_CEREG_Rn
                    0x966a                  _AT_CMD_CEREG
                    0x968c                  _AT_CMD_NSOCR
                    0x96ac                  _AT_CMD_NCDP
                    0x96be                  _AT_CMD_NCDP_R
                    0x96d0                  _AT_CMD_NSOCR_R
                    0x96e4                  _AT_CMD_NSOCL
                    0x96fc                  _AT_CMD_NSORF
                    0x970c                  _AT_CMD_CGMR
                    0x971e                  _AT_CMD_NCCID
                    0x9730                  _AT_CMD_NQMGR
                    0x9740                  _AT_CMD_NMGR
                    0x9754                  _AT_CMD_CGPADDR
 .const             0x975a        0x200 build/default/production/src/depend/crc16.o
                    0x975a                  _auchCRCHi
                    0x985a                  _auchCRCLo
 .const             0x995a        0x134 build/default/production/src/api/ui.o
 .const             0x9a8e        0x118 build/default/production/src/driver/lcd.o
                    0x9a8e                  _LCDDigitalIndexTable
                    0x9abb                  _LCDDigitalTable
                    0x9ae7                  _LCDDigitalTableIndexEx
                    0x9b28                  _LCDDigitalTableEx
 .const             0x9ba6         0x44 build/default/production/src/api/nbiot.o
 .const             0x9bea         0x12 build/default/production/src/depend/m_string.o
                    0x9bea                  _HexTable
 .const             0x9bfc          0xc build/default/production/src/driver/ads1148.o
                    0x9bfc                  _ads1148DefaultBuf

.text             0x001c08       0xbade
 .text            0x001c08       0x2844 build/default/production/src/api/key_menu.o
                  0x001c08                  ___exp_10
                  0x001c3c                  ___sys_data_save_write_flash
                  0x001c8e                  _key_waite_release
                  0x001cce                  ___enter_root_enable
                  0x001cfa                  _key_shift_loc
                  0x001d3a                  _key_adj_value_fixed
                  0x001da0                  _key_adj_value_fixed_t8
                  0x001e38                  _key_adj_value_float
                  0x001eaa                  _key_process_up_down_variable_speed_ex
                  0x001f94                  ___enter_menu_password
                  0x001fa4                  ___enter_menu_set_pdc_chang_psd
                  0x002020                  ___enter_menu_set_pdc
                  0x00204c                  ___enter_menu_set_density
                  0x002070                  ___enter_menu_set_pose_size
                  0x002090                  ___enter_menu_set_d
                  0x0020bc                  ___enter_menu_set_h
                  0x0020e8                  ___enter_menu_set_base_zero
                  0x00211e                  ___enter_menu_calib_press_diff
                  0x00218e                  ___enter_menu_calib_press
                  0x0021fe                  ___enter_menu_ex0_pr_calib
                  0x00226e                  ___enter_menu_ex1_pr_calib
                  0x0022de                  ___enter_menu_calib_dpr_2nd
                  0x00231a                  ___enter_menu_calib_pr_2nd
                  0x002342                  ___enter_menu_calib_epr0_2nd
                  0x00236a                  ___enter_menu_calib_epr1_2nd
                  0x002388                  ___enter_menu_set_temp_ex0
                  0x00239e                  ___enter_menu_set_temp_ex1
                  0x0023b4                  ___enter_menu_poly_coeffic
                  0x0023e0                  ___enter_menu_poly_coeffic_mod
                  0x002418                  ___enter_menu_warn_type
                  0x002448                  ___enter_menu_warn_value
                  0x0024a6                  ___enter_menu_ilp_scale
                  0x002512                  ___enter_menu_ilp_adjust
                  0x002562                  ___enter_menu_bar_scale
                  0x00257e                  ___enter_menu_work_mode
                  0x002594                  ___enter_menu_set_ext_show_mode
                  0x0025aa                  ___enter_menu_set_wakeup_period
                  0x0025c2                  ___enter_menu_set_rf_send_period
                  0x0025da                  ___enter_menu_set_bl_on_tm
                  0x0025f0                  ___enter_menu_set_lcd_on_tm
                  0x002606                  ___enter_menu_set_modbus_addr
                  0x00261c                  ___enter_menu_show_ver
                  0x002628                  ___exit_menu_to_home_unsave
                  0x00264a                  ___down_base_zero_adj
                  0x0026ae                  ___down_pose_size
                  0x0026ca                  ___down_density
                  0x0026de                  ___down_dpr_calib
                  0x0026f2                  ___down_ex0_pr_calib
                  0x002706                  ___down_ex1_pr_calib
                  0x00271a                  ___down_pr_calib
                  0x00272e                  ___down_home_adj
                  0x00277a                  ___down_home_adj_test
                  0x0027a0                  ___down_ilp_adjust_value_adj
                  0x0027b0                  ___down_adj_modbus_id
                  0x0027c0                  ___down_adj_lcd_on_tm
                  0x0027d0                  ___down_adj_rf_send_period
                  0x0027fc                  ___down_poly_coefic_adj_mod
                  0x002880                  _key_process_down
                  0x0029b8                  ___up_home_adj
                  0x0029fe                  ___up_adj_pcd
                  0x002a0c                  ___up_psw_adj
                  0x002a1a                  ___up_density_adj_sel_matter
                  0x002a5e                  ___up_density_adj
                  0x002a80                  ___up_pose_size_adj
                  0x002aca                  ___up_base_zero_adj
                  0x002b2e                  ___up_diff_calib_adj
                  0x002b66                  ___up_pr_calib_adj
                  0x002b9e                  ___up_ex0_pr_calib_adj
                  0x002bd6                  ___up_ex1_pr_calib_adj
                  0x002c0e                  ___up_poly_coefic_adj
                  0x002c1c                  ___up_poly_coefic_adj_mod
                  0x002c8c                  ___up_warn_type_adj
                  0x002cae                  ___up_warn_value_adj
                  0x002cbc                  ___up_etemp_calib_adj
                  0x002cca                  ___up_epr_ilp_scale_adj
                  0x002cd8                  ___up_ilp_adjust_value_adj
                  0x002ce8                  ___up_adj_bar_level_scale
                  0x002d1c                  ___up_adj_work_mode
                  0x002d3c                  ___up_adj_ext_show_mode
                  0x002d5c                  ___up_adj_wakeup_period
                  0x002db8                  ___up_adj_rf_send_period
                  0x002ddc                  ___up_adj_bl_on_tm
                  0x002e2a                  ___up_adj_lcd_on_tm
                  0x002e3a                  ___up_adj_modbus_id
                  0x002e4a                  _key_process_up
                  0x0030d0                  _key_process_set_all_long
                  0x0030e6                  _key_process_set_up_long_root
                  0x003280                  _key_process_set_up_long_user
                  0x00338a                  ___set_short_pdc
                  0x0033c6                  ___set_short_density
                  0x003424                  ___set_short_pose_size
                  0x0034b6                  ___set_short_diff_calib
                  0x00361c                  ___set_short_pr_calib
                  0x0037fe                  ___set_short_ex0_pr_calib
                  0x00394a                  ___set_short_ex1_pr_calib
                  0x003a96                  ___set_short_ex0_etemp_calib
                  0x003ae0                  ___set_short_ex1_etemp_calib
                  0x003b2a                  ___set_short_poly_coefic
                  0x003b6a                  ___set_short_warn_type
                  0x003bae                  ___set_short_warn_value
                  0x003c20                  ___set_short_calib_dpr_2nd
                  0x003c90                  ___set_short_calib_pr_2nd
                  0x003cb4                  ___set_short_calib_epr0_2nd
                  0x003cd8                  ___set_short_calib_epr1_2nd
                  0x003cfc                  ___set_short_ilp_scale
                  0x003d7c                  ___set_short_ilp_adjust_value
                  0x003dda                  ___set_long_density
                  0x003e14                  ___set_long_base_zero
                  0x003e48                  ___set_long_bar_level_scale
                  0x003e60                  ___set_long_work_mode
                  0x003e74                  ___set_long_ext_show_mode
                  0x003e8a                  ___set_long_wake_up_period
                  0x003e9a                  ___set_long_rf_send_period
                  0x003eaa                  ___set_long_poly_coefic_adj_mod
                  0x003eb6                  ___set_long_bl_on_tm
                  0x003ecc                  ___set_long_lcd_on_tm
                  0x003ee2                  ___set_long_modbus_id
                  0x003ef8                  _key_process_set_long
                  0x004190                  _key_process_set
                  0x0042c0                  _no_operation_save_exit
                  0x00430e                  _key_process
 .text            0x00444c       0x1cfe build/default/production/src/driver/lcd.o
                  0x00444c                  _lcd_disp_level_bar
                  0x004946                  _lcd_disp_level
                  0x00498a                  _lcd_disp_level_off
                  0x0049a6                  _lcd_disp_battary_bar
                  0x004a2c                  _lcd_disp_battary
                  0x004a64                  _lcd_disp_battary_off
                  0x004a7e                  _lcd_disp_rf_bar
                  0x004b08                  _lcd_disp_rf
                  0x004b5a                  _lcd_disp_rf_off
                  0x004b74                  _lcd_disp_light_bar
                  0x004bc0                  _lcd_disp_light
                  0x004bf2                  _lcd_disp_light_off
                  0x004c04                  _lcd_disp_chr_loc_0
                  0x004cb8                  _lcd_disp_dp_loc_0
                  0x004cd4                  _lcd_disp_chr_loc_1
                  0x004d7c                  _lcd_disp_dp_loc_1
                  0x004d98                  _lcd_disp_chr_loc_2
                  0x004e40                  _lcd_disp_dp_loc_2
                  0x004e5c                  _lcd_disp_chr_loc_3
                  0x004f04                  _lcd_disp_chr_loc_4
                  0x004fb8                  _lcd_disp_dp_loc_4
                  0x004fd4                  _lcd_disp_chr_loc_5
                  0x00507c                  _lcd_disp_dp_loc_5
                  0x005098                  _lcd_disp_chr_loc_6
                  0x005140                  _lcd_disp_dp_loc_6
                  0x00515c                  _lcd_disp_chr_loc_7
                  0x005204                  _lcd_disp_logo
                  0x00520c                  _lcd_disp_unit_t
                  0x005234                  _lcd_disp_unit_1st_m
                  0x00525c                  _lcd_disp_unit_1st_m3
                  0x00528a                  _lcd_disp_unit_temperature
                  0x0052a6                  _lcd_disp_unit_2nd_m
                  0x0052d4                  _lcd_disp_unit_2nd_m3
                  0x005308                  _lcd_disp_unit_mpa
                  0x005336                  _lcd_disp_chr_loc_0_ex
                  0x0055a8                  _lcd_disp_chr_loc_1_ex
                  0x00581a                  _lcd_disp_chr_loc_2_ex
                  0x005a8c                  _lcd_disp_chr_loc_0_sm
                  0x005b34                  _lcd_disp_chr_loc_1_sm
                  0x005bdc                  _lcd_disp_chr_loc_2_sm
                  0x005c84                  _lcd_disp_dp_loc_0_sm
                  0x005ca0                  _lcd_disp_dp_loc_1_sm
                  0x005cbc                  _lcd_disp_dp_loc_sign_sm
                  0x005cd8                  _lcd_disp_dp_loc_sm_temperature
                  0x005cf4                  _lcd_show_dp_sm
                  0x005d16                  _lcd_clear_all_dp_sm
                  0x005d24                  _lcd_disp_get_code
                  0x005d62                  _lcd_disp_get_code_ex
                  0x005da0                  _lcd_clear_all_dp
                  0x005dbe                  _lcd_show_dp
                  0x005e0e                  _lcd_show_chr
                  0x005e7a                  _lcd_show_chr_sm
                  0x005eb0                  _lcd_show_chr_ex
                  0x005ee6                  _lcd_show_string_sm
                  0x005f14                  _lcd_show_string_ex
                  0x005f42                  _lcd_show_chr_lc
                  0x005f72                  _lcd_show_string_l0
                  0x005fa0                  _lcd_show_string_l1
                  0x005fce                  _lcd_show_string
                  0x005ffc                  _lcd_disp_refresh
                  0x006092                  _lcd_disp_all
                  0x0060b4                  _lcd_config
                  0x006136                  _lcd_init
 .text            0x00614a       0x17f0 build/default/production/src/api/ui.o
                  0x00614a                  ___x_arrange_str
                  0x006184                  ___int32_2_mflot32_02
                  0x00622a                  _ui_disp_xfloat_pt_02
                  0x00625c                  ___int32_2_mflot32
                  0x006302                  ___mflot32_2_int32
                  0x006366                  _ui_disp_all_on
                  0x006372                  _ui_disp_all_off
                  0x00637e                  _ui_disp_start_cs600
                  0x0063ce                  _ui_disp_rtc_mm_ss
                  0x0063d4                  _ui_disp_clear_num_dp
                  0x006402                  _ui_disp_adj_xfloat_pt
                  0x00655e                  _ui_disp_adj_xfixed
                  0x0065b2                  _ui_disp_adj_xfixed_static
                  0x0065f2                  _ui_disp_adj_xfixed_static_3
                  0x006638                  _ui_disp_adj_xfixed_pt
                  0x006696                  _ui_disp_adj_xfixed_pt_t8
                  0x006734                  _ui_disp_adj_xfixed_pt_dp
                  0x00679c                  _ui_disp_xfloat_pt_twinkle
                  0x006872                  _ui_disp_xfloat_pt_ex
                  0x006908                  _ui_disp_xfloat_pt
                  0x00699e                  _ui_disp_menu_pdc
                  0x0069e2                  _ui_disp_menu_set_pdc
                  0x006a64                  _ui_disp_menu_psw_adj
                  0x006a7c                  _ui_disp_menu_home_test
                  0x006a88                  _ui_disp_home_sm_tmp_in
                  0x006b26                  _ui_disp_home_sm_ex
                  0x006b50                  _ui_disp_ext_loop
                  0x006da8                  _ui_disp_menu_home
                  0x006f50                  _ui_disp_menu_density_sel_matter
                  0x006fac                  _ui_disp_menu_density_sel_custom
                  0x006fec                  _ui_disp_menu_density_adj
                  0x007008                  _ui_disp_menu_pos_adj
                  0x007042                  _ui_disp_menu_h_adj
                  0x007070                  _ui_disp_menu_d_adj
                  0x00708a                  _ui_disp_menu_pose_size
                  0x0070b0                  _ui_disp_menu_bzero_adj
                  0x0070e8                  _ui_disp_menu_calib_adj_x
                  0x00716e                  _ui_disp_menu_poly_c_adj
                  0x0071a8                  _ui_disp_menu_warn_t_adj
                  0x00721c                  _ui_disp_menu_warn_v_adj
                  0x007292                  _ui_disp_menu_calib_ex0_temp_adj
                  0x007308                  _ui_disp_menu_calib_ex1_temp_adj
                  0x00737e                  _ui_disp_menu_epr_ilp_scale_adj
                  0x0073da                  _ui_disp_menu_ilp_adj
                  0x007424                  _ui_disp_menu_bar_full_adj
                  0x00743a                  _ui_disp_menu_work_mode_adj
                  0x007468                  _ui_disp_menu_ext_show_mode
                  0x007496                  _ui_disp_menu_wake_up_period
                  0x0074ba                  _ui_disp_menu_rf_send_period
                  0x0074de                  _ui_disp_menu_poly_coefic_adj_mod
                  0x007522                  _ui_disp_menu_calib_dpr_2nd
                  0x007556                  _ui_disp_menu_calib_x_2nd
                  0x00760c                  _ui_disp_menu_bl_on_tm
                  0x007660                  _ui_disp_menu_lcd_on_tm
                  0x007678                  _ui_disp_menu_modbus_id
                  0x007690                  _ui_disp_menu_ver
                  0x0076ac                  _ui_disp_menu
 .text            0x00793a       0x1190 build/default/production/src/api/sysdata.o
                  0x00793a                  _data_sys_get_density
                  0x007952                  _data_sys_cal_v1
                  0x0079c4                  _data_sys_cal_v2
                  0x007a08                  _data_sys_init
                  0x007a80                  _data_sys_save
                  0x007ad8                  _calib_data_put_piont_tab
                  0x007b34                  _calib_data_set_default
                  0x007c2e                  _cal_smoothing_filter
                  0x007cb4                  _m_interp1_cal_p_s
                  0x007e9c                  _m_interp1_cal_p_t
                  0x007fbe                  _m_interp1_float_fast
                  0x008040                  _calib_data_obj_init
                  0x0080c6                  _data_init_all
                  0x008144                  _cal_diff_hight_to_vol_h
                  0x00822c                  _cal_diff_hight_level
                  0x0082da                  _cal_diff_hight_to_vol_v
                  0x0084b0                  _cal_diff_p_to_h
                  0x0084f8                  _cal_diff_vol_to_t
                  0x008534                  _calculate_and_compensate
                  0x00859a                  _calc_res_2_temp
                  0x0086b6                  _cal_battery_voltage
                  0x0086bc                  _calc_warning_pr_dpr
                  0x00885a                  _calc_dpr_iloop_out_put
                  0x0088da                  _calc_dpr_iloop_out_put_ex
                  0x008992                  _calc_pr_iloop_out_put
                  0x008a12                  _calc_pr_iloop_out_put_ex
 .text            0x008aca        0xfe4 build/default/production/src/app/sample.o
                  0x008aca                  _abs_diff
                  0x008ae6                  _samlpe_get_adc_average_value_ex
                  0x008be6                  _samlpe_read_adc
                  0x008c82                  _samlpe_read_adc_ex
                  0x008d08                  _samlpe_chip0_ch_diff_pr_bridge
                  0x008d60                  _samlpe_chip0_ch_diff_pr_signal
                  0x008db0                  _sample_calc_calib_dpr_2nd
                  0x008e4c                  _sample_calc_calib_x_2nd
                  0x008e68                  _sample_calc_diff_press_fliter
                  0x008ef0                  _sample_calc_diff_press_static_err
                  0x00902a                  _sample_calc_diff_press_fi_full
                  0x009098                  _sample_calc_diff_press
                  0x009140                  _samlpe_chip0_ch_pr_bridge
                  0x0091a8                  _samlpe_chip0_ch_pr_signal
                  0x0091f8                  _samlpe_chip0_ch_temperature_in
                  0x009272                  _samlpe_chip0_ch_diff_pr_ref0
                  0x0092b4                  _sample_calc_press
                  0x009306                  _sample_calc_temperature_in
                  0x00937a                  _samlpe_chip1_ch_expr0_signal
                  0x0093e6                  _sample_calc_press_ex0
                  0x00943c                  _samlpe_chip1_ch_ex0_temperature_A
                  0x0094a8                  _samlpe_chip1_ch_ex0_temperature_B
                  0x0094f6                  _sample_calc_temperature_ex0
                  0x0095e0                  _samlpe_chip1_ch_expr1_signal
                  0x00964c                  _sample_calc_press_ex1
                  0x0096a2                  _samlpe_chip1_ch_ex1_temperature_A
                  0x00970e                  _samlpe_chip1_ch_ex1_temperature_B
                  0x00975c                  _sample_calc_temperature_ex1
                  0x009844                  _ain_ref_config
                  0x009856                  _ain_bat_config
                  0x009868                  _sample_in_soc_solar
                  0x009922                  _samlpe_in_soc_battery
                  0x0099e8                  _samlpe_in_soc_ref
                  0x0099ee                  _sample_process
 .text            0x009aae        0xa40 build/default/production/src/driver/ads1148.o
                  0x009aae                  _ads1148_send_cmd
                  0x009ade                  _ads1148_read_data
                  0x009b40                  _ads1148_write_register
                  0x009bb2                  _ads1148_read_register
                  0x009c2a                  _ads1148_slef_calibration
                  0x009c54                  _ads1148_set_channle_normal
                  0x009cc6                  _ads1148_set_bcs
                  0x009d22                  _ads1148_set_vbias
                  0x009d3a                  _ads1148_set_vref
                  0x009dbe                  _ads1148_set_muxcal
                  0x009e24                  _ads1148_set_data_rate
                  0x009e80                  _ads1148_set_ani_pga
                  0x009ee0                  _ads1148_set_imag_idac
                  0x009f3c                  _ads1148_set_drdy_mode
                  0x009f9a                  _ads1148_set_idac1_pins
                  0x009ff6                  _ads1148_set_idac2_pins
                  0x00a052                  _ads1148_set_idac12_pins
                  0x00a0c0                  _ads1148_get_all_register
                  0x00a0d6                  _ads1148_set_mux0_ex
                  0x00a122                  _ads1148_set_vbias_ex
                  0x00a132                  _ads1148_set_mux1_ex
                  0x00a182                  _ads1148_set_sys0_ex
                  0x00a1bc                  _ads1148_set_idac0_ex
                  0x00a1f4                  _ads1148_set_idac1_ex
                  0x00a22a                  _ads1148_set_config_ex
                  0x00a24e                  _ads1148_init_obj_0
                  0x00a28e                  _ads1148_init_obj_1
                  0x00a2ce                  _ads1148_set_sync
                  0x00a304                  _ads1148_set_ready
                  0x00a34c                  _ads1148_init_chip_regs
                  0x00a3d2                  _ads1148_init_all_obj
                  0x00a3dc                  _ads1148_init_device
                  0x00a3fe                  _ads1148_pre_sleep
                  0x00a41a                  _ads1148_post_sleep
                  0x00a432                  _ads1148_start_convert
                  0x00a440                  _ads1148_stop_convert
                  0x00a44e                  _ads1148_waite_convert
                  0x00a49e                  _ads1148_test
 .text            0x00a4ee        0x94e build/default/production/src/api/nbiot.o
                  0x00a4ee                  _nb_process_disable_sleep_in_lwp
                  0x00a4f8                  _nb_at_cmd_recbuf_init
                  0x00a508                  _nb_at_cmd_waite_resp
                  0x00a56a                  _nb_at_cmd_ex
                  0x00a5ee                  _nb_power_on_process_waite_ok
                  0x00a666                  _nb_extract_cimi
                  0x00a692                  _nb_extract_cgsn
                  0x00a6c0                  _nb_extract_nccid
                  0x00a6f0                  _nb_module_nbr
                  0x00a706                  _nb_coap_ncbp
                  0x00a776                  _nb_get_csq
                  0x00a812                  _nb_module_cfun_off
                  0x00a828                  _nb_coap_enter_psm
                  0x00a83e                  _nb_coap_psm_send_ready
                  0x00aae0                  _nb_send_packet_load
                  0x00aaec                  _nb_udp_send_load_coap
                  0x00ab8e                  _nb_send_coap
                  0x00ac42                  _my_scanf_int16
                  0x00acea                  _np_received_extract_coap
                  0x00ad34                  _nb_received_coap
                  0x00add0                  _nb_received_process
                  0x00addc                  _nb_process
 .text            0x00ae3c        0x688 build/default/production/src/depend/m_string.o
                  0x00ae3c                  _m_mem_set
                  0x00ae66                  _m_mem_cpy_len
                  0x00ae90                  _m_mem_cpy
                  0x00aeba                  _m_str_cpy
                  0x00aef0                  _m_str_cmp
                  0x00af30                  _m_str_cmp_len
                  0x00af76                  _m_str_match
                  0x00afe4                  _m_str_match_ex
                  0x00b056                  _m_math_pow
                  0x00b0ae                  _m_int_2_str
                  0x00b132                  _m_str_head_hide
                  0x00b174                  _HEX8
                  0x00b1a8                  _m_str_b2h
                  0x00b204                  _m_str_h2b
                  0x00b30e                  _m_int8_2_hex
                  0x00b344                  _m_int16_2_str_4
                  0x00b3ee                  _m_int16_2_str_3
                  0x00b46a                  _int16_2_d
 .text            0x00b4c4        0x474 build/default/production/src/app/main.o
                  0x00b4c4                  _m_system_init
                  0x00b4cc                  _thread_main_pre
                  0x00b532                  _event_sample_real_time_mode
                  0x00b582                  _event_sample_sleep_wake_mode
                  0x00b606                  _event_iloop_out_put_adj
                  0x00b6ac                  _event_iloop_out_put
                  0x00b730                  _event_enter_sleep
                  0x00b76a                  _event_call_disp
                  0x00b7a2                  _event_rtc_bl_off
                  0x00b7d0                  _event_rtc_no_operation_tm_out
                  0x00b7ea                  _event_rtc_lcd_off
                  0x00b83c                  _event_rtc_modify_poly_coeffic
                  0x00b870                  _main
 .text            0x00b938        0x450 build/default/production/src/driver/gpio.o
                  0x00b938                  _kz_qy_vcc_enable
                  0x00b950                  _kz_qy_vcc_disable
                  0x00b962                  _kz_vadd_on
                  0x00b988                  _kz_vadd_off
                  0x00b9a2                  _back_night_on
                  0x00b9ce                  _back_night_off
                  0x00b9e8                  _status_ma_mode_in
                  0x00b9fa                  _get_ex_function_status
                  0x00ba26                  _all_status_pins_mod_in
                  0x00ba5c                  _all_status_pins_mod_out
                  0x00baaa                  _rs_485_set_rx
                  0x00bac2                  _rs_485_set_tx
                  0x00bada                  _check_solor_set_hight
                  0x00baf2                  _check_solor_set_low
                  0x00bb0a                  _ain_solor_config
                  0x00bb1c                  _all_bj_init
                  0x00bb40                  _all_bj_disable
                  0x00bb5e                  _bj_1_on
                  0x00bb6a                  _bj_2_on
                  0x00bb76                  _bj_3_on
                  0x00bb82                  _bj_4_on
                  0x00bb8e                  _bj_1_off
                  0x00bb9a                  _bj_2_off
                  0x00bba6                  _bj_3_off
                  0x00bbb2                  _bj_4_off
                  0x00bbbe                  _bj_all_on
                  0x00bbd2                  _bj_all_off
                  0x00bbe6                  _bj_output
                  0x00bc46                  _run_status_init
                  0x00bc58                  _pre_system_sleep_deinit_all_pins
                  0x00bc7a                  _unused_pins_deinit
                  0x00bca0                  _gsm_en_pins_config
                  0x00bca6                  _gsm_module_enable
                  0x00bcbe                  _gsm_module_disable
                  0x00bcd0                  _gsm_rst_pins_config
                  0x00bcd6                  _gsm_rst_enable
                  0x00bcee                  _gsm_rst_release
                  0x00bd00                  _gps_en_pins_config
                  0x00bd06                  _gps_module_enable
                  0x00bd18                  _gps_module_disable
                  0x00bd24                  _gps_rst_pins_config
                  0x00bd2a                  _gps_rst_enable
                  0x00bd42                  _gps_rst_release
                  0x00bd54                  _pre_system_sleep
 .text            0x00bd88        0x3a0 build/default/production/src/driver/ads1148_hal.o
                  0x00bd88                  _ads1148_hal_sck_mod_out
                  0x00bda0                  _ads1148_hal_sck_set_hight
                  0x00bdac                  _ads1148_hal_sck_set_low
                  0x00bdb8                  _ads1148_hal_sck_mod_in
                  0x00bdca                  _ads1148_hal_din_mod_out
                  0x00bddc                  _ads1148_hal_din_set_hight
                  0x00bde8                  _ads1148_hal_din_set_low
                  0x00bdf4                  _ads1148_hal_din_mod_in
                  0x00be06                  _ads1148_hal_din_get
                  0x00be16                  _ads1148_hal_dout_mod_out
                  0x00be2e                  _ads1148_hal_dout_set_hight
                  0x00be3a                  _ads1148_hal_dout_set_low
                  0x00be46                  _ads1148_hal_dout_mod_in
                  0x00be58                  _ads1148_hal_drdy_0_mod_out
                  0x00be6e                  _ads1148_hal_drdy_0_set_hight
                  0x00be7c                  _ads1148_hal_drdy_0_set_low
                  0x00be8a                  _ads1148_hal_drdy_0_mod_in
                  0x00bea0                  _ads1148_hal_drdy_0_get
                  0x00beb2                  _ads1148_hal_cs_0_mod_out
                  0x00beca                  _ads1148_hal_cs_0_mod_in
                  0x00bedc                  _ads1148_hal_cs_0_set_hight
                  0x00bee8                  _ads1148_hal_cs_0_set_low
                  0x00befe                  _ads1148_hal_start_0_mod_out
                  0x00bf16                  _ads1148_hal_start_0_set_hight
                  0x00bf22                  _ads1148_hal_start_0_set_low
                  0x00bf2e                  _ads1148_hal_start_0_mod_in
                  0x00bf40                  _ads1148_hal_drdy_1_mod_out
                  0x00bf52                  _ads1148_hal_drdy_1_set_hight
                  0x00bf5e                  _ads1148_hal_drdy_1_set_low
                  0x00bf6a                  _ads1148_hal_drdy_1_mod_in
                  0x00bf7c                  _ads1148_hal_drdy_1_get
                  0x00bf8a                  _ads1148_hal_cs_1_mod_out
                  0x00bfa2                  _ads1148_hal_cs_1_set_hight
                  0x00bfae                  _ads1148_hal_cs_1_set_low
                  0x00bfc4                  _ads1148_hal_cs_1_mod_in
                  0x00bfd6                  _ads1148_hal_start_1_mod_out
                  0x00bfee                  _ads1148_hal_start_1_set_hight
                  0x00bffa                  _ads1148_hal_start_1_set_low
                  0x00c006                  _ads1148_hal_start_1_mod_in
                  0x00c018                  _ads1148_hal_port_mode_dig_all
                  0x00c056                  _ads1148_hal_port_init_chip0
                  0x00c068                  _ads1148_hal_port_deinit_chip0
                  0x00c084                  _ads1148_hal_port_init_chip1
                  0x00c096                  _ads1148_hal_port_deinit_chip1
                  0x00c0a6                  _ads1148_hal_write_read_byte
                  0x00c0f8                  _ads1148_hal_pwr_off
                  0x00c110                  _ads1148_hal_pwr_on
 .text            0x00c128        0x35c build/default/production/src/driver/i2c.o
                  0x00c128                  _iic_pins_init
                  0x00c152                  _iic_pins_deinit
                  0x00c17c                  _iic_start
                  0x00c1be                  _iic_stop
                  0x00c1fa                  _iic_send_ack
                  0x00c290                  _iic_waite_ack
                  0x00c32c                  _iic_send_byte
                  0x00c3d8                  _iic_received_byte
                  0x00c46e                  _iic_received_byte_if_ack
 .text            0x00c484        0x340 build/default/production/src/api/modbus.o
                  0x00c484                  _my_uart1_send_poll
                  0x00c4a0                  _modbus_response_illgeal_function
                  0x00c4e6                  _getRegisterVal
                  0x00c69c                  _modbus_response_command
                  0x00c76a                  _modbus_response_process
 .text            0x00c7c4        0x332 build/default/production/src/driver/ad421.o
                  0x00c7c4                  _ad421_chip0_pins_init
                  0x00c806                  _ad421_chip1_pins_init
                  0x00c842                  _ad421_chip0_pins_deinit
                  0x00c884                  _ad421_chip1_pins_deinit
                  0x00c8c0                  _ad421_chip0_set_idac_value
                  0x00c922                  _ad421_chip1_set_idac_value
                  0x00c980                  _ad421_chip0_set_idac_value_ex
                  0x00c9fe                  _ad421_chip1_set_idac_value_ex
                  0x00ca96                  _ad421_all_obj_init
                  0x00cacc                  _ad421_test
 .text            0x00caf6        0x2e0 build/default/production/mcc_generated_files/rtcc.o
                  0x00caf6                  _RTCC_Initialize
                  0x00cb4c                  _RTCC_TimeReset
                  0x00cb62                  _RTCC_TimeGet
                  0x00cc14                  _RTCC_TimeSet
                  0x00cc98                  _RTCC_BCDTimeGet
                  0x00cd32                  _RTCC_BCDTimeSet
 .text            0x00cdd6        0x236 build/default/production/mcc_generated_files/uart2.o
                  0x00cdd6                  _UART2_Initialize
                  0x00cdec                  _UART2_Read
                  0x00ce22                  _UART2_ReadBuffer
                  0x00ce56                  _UART2_Write
                  0x00ce8c                  _UART2_WriteBuffer
                  0x00cebe                  _UART2_TransferStatusGet
                  0x00cefa                  _UART2_Peek
                  0x00cf22                  _UART2_ReceiveBufferSizeGet
                  0x00cf50                  _UART2_TransmitBufferSizeGet
                  0x00cf80                  _UART2_ReceiveBufferIsEmpty
                  0x00cf98                  _UART2_TransmitBufferIsFull
                  0x00cfb0                  _UART2_StatusGet
                  0x00cfb8                  _uart2_send_byte
                  0x00cfd0                  _uart2_send_str
                  0x00cfea                  _uart2_send_len
 .text            0x00d00c        0x236 build/default/production/mcc_generated_files/uart1.o
                  0x00d00c                  _UART1_Initialize
                  0x00d022                  _UART1_Read
                  0x00d058                  _UART1_ReadBuffer
                  0x00d08c                  _UART1_Write
                  0x00d0c2                  _UART1_WriteBuffer
                  0x00d0f4                  _UART1_TransferStatusGet
                  0x00d130                  _UART1_Peek
                  0x00d158                  _UART1_ReceiveBufferSizeGet
                  0x00d186                  _UART1_TransmitBufferSizeGet
                  0x00d1b6                  _UART1_ReceiveBufferIsEmpty
                  0x00d1ce                  _UART1_TransmitBufferIsFull
                  0x00d1e6                  _UART1_StatusGet
                  0x00d1ee                  _uart1_send_byte
                  0x00d206                  _uart1_send_str
                  0x00d220                  _uart1_send_len
 .text            0x00d242        0x202 build/default/production/src/driver/ex_eeprom.o
                  0x00d242                  _at24c02_vdd_on
                  0x00d254                  _at24c02_vdd_off
                  0x00d264                  _at24c02_set_slave_addr
                  0x00d27e                  _at24c02_init
                  0x00d2b8                  _at24c02_init_all_chip
                  0x00d2d6                  _at24c02_read_byte
                  0x00d31c                  _at24c02_read_n_byte
                  0x00d394                  _at24c02_write_byte
                  0x00d3c6                  _at24c02_write_n_byte
 .text            0x00d444        0x172 build/default/production/src/soc/flash.o
                  0x00d444                  _m_flash_unlock_write
                  0x00d478                  _m_flash_read
                  0x00d4f8                  _m_flash_erase
                  0x00d522                  _m_flash_write
 .text            0x00d5b6        0x130 build/default/production/src/soc/ticker.o
                  0x00d5b6                  _TMR1_CallBack
                  0x00d5c8                  _ticker_ms_set
                  0x00d5d6                  _ticker_ms_get
                  0x00d5e0                  _ticker_ms_delay
                  0x00d620                  _api_timer2_start
                  0x00d628                  _api_timer2_stop
                  0x00d63a                  _TMR2_CallBack
                  0x00d6bc                  _ticker_10ms_per_get
                  0x00d6c6                  _ticker_10ms_per_set
                  0x00d6d4                  _rtcc_interupt_disable
                  0x00d6de                  _rtcc_interupt_enable

.dinit            0x00d6e6        0x11e
 .dinit           0x00d6e6        0x11e data_init

.text             0x00d804        0x504
 .text            0x00d804         0xce build/default/production/mcc_generated_files/tmr2.o
                  0x00d804                  _TMR2_Initialize
                  0x00d81e                  _TMR2_Period16BitSet
                  0x00d830                  _TMR2_Period16BitGet
                  0x00d838                  _TMR2_Counter16BitSet
                  0x00d84a                  _TMR2_Counter16BitGet
                  0x00d858                  _TMR2_Start
                  0x00d880                  _TMR2_Stop
                  0x00d8a2                  _TMR2_GetElapsedThenClear
                  0x00d8ba                  _TMR2_SoftwareCounterGet
                  0x00d8c6                  _TMR2_SoftwareCounterClear
 .text            0x00d8d2         0xbe build/default/production/src/depend/crc16.o
                  0x00d8d2                  _crc_sum
                  0x00d932                  _crc_verify
                  0x00d962                  _crc_append
 .text            0x00d990         0xba build/default/production/mcc_generated_files/pin_manager.o
                  0x00d990                  _PIN_MANAGER_Initialize
 .text            0x00da4a         0xa0 build/default/production/mcc_generated_files/tmr1.o
                  0x00da4a                  _TMR1_Initialize
                  0x00da64                  _TMR1_Period16BitSet
                  0x00da76                  _TMR1_Period16BitGet
                  0x00da7e                  _TMR1_Counter16BitSet
                  0x00da90                  _TMR1_Counter16BitGet
                  0x00da9e                  _TMR1_Start
                  0x00daae                  _TMR1_Stop
                  0x00daba                  _TMR1_GetElapsedThenClear
                  0x00dad2                  _TMR1_SoftwareCounterGet
                  0x00dade                  _TMR1_SoftwareCounterClear
 .text            0x00daea         0x94 build/default/production/mcc_generated_files/adc1.o
                  0x00daea                  _ADC1_Initialize
                  0x00db10                  _ADC1_Start
                  0x00db18                  _ADC1_Stop
                  0x00db20                  _ADC1_ConversionResultBufferGet
                  0x00db52                  _ADC1_ConversionResultGet
                  0x00db5a                  _ADC1_IsConversionComplete
                  0x00db72                  _ADC1_ChannelSelect
 .text            0x00db7e         0x6a build/default/production/mcc_generated_files/interrupt_manager.o
                  0x00db7e                  _INTERRUPT_Initialize
 .text            0x00dbe8         0x5a build/default/production/src/driver/key.o
                  0x00dbe8                  _get_key_value
                  0x00dc14                  _key_init
 .text            0x00dc42         0x4a build/default/production/src/soc/delay.o
                  0x00dc42                  _delay_us
                  0x00dc6a                  _delay_ms
 .text            0x00dc8c         0x34 build/default/production/mcc_generated_files/mcc.o
                  0x00dc8c                  _SYSTEM_Initialize
                  0x00dca4                  _OSCILLATOR_Initialize
 .text            0x00dcc0         0x1a build/default/production/src/soc/m_asm.o
                  0x00dcc0                  _flash_unlock_pm
 .text            0x00dcda         0x18 build/default/production/src/app/event.o
                  0x00dcda                  _send_thread_main_event_key_down
 .text            0x00dcf2         0x16 build/default/production/mcc_generated_files/traps.o
                  0x00dcf2                  _TRAPS_halt_on_error
